
stm32f4xx_drivers.elf:     file format elf32-littlearm

Sections:
Idx Name          Size      VMA       LMA       File off  Algn
  0 .isr_vector   000001a8  08000000  08000000  00010000  2**0
                  CONTENTS, ALLOC, LOAD, READONLY, DATA
  1 .text         00000cc8  080001a8  080001a8  000101a8  2**2
                  CONTENTS, ALLOC, LOAD, READONLY, CODE
  2 .rodata       0000000c  08000e70  08000e70  00010e70  2**2
                  CONTENTS, ALLOC, LOAD, READONLY, DATA
  3 .ARM.extab    00000000  08000e7c  08000e7c  00020018  2**0
                  CONTENTS
  4 .ARM          00000000  08000e7c  08000e7c  00020018  2**0
                  CONTENTS
  5 .preinit_array 00000000  08000e7c  08000e7c  00020018  2**0
                  CONTENTS, ALLOC, LOAD, DATA
  6 .init_array   00000004  08000e7c  08000e7c  00010e7c  2**2
                  CONTENTS, ALLOC, LOAD, DATA
  7 .fini_array   00000004  08000e80  08000e80  00010e80  2**2
                  CONTENTS, ALLOC, LOAD, DATA
  8 .data         00000018  20000000  08000e84  00020000  2**2
                  CONTENTS, ALLOC, LOAD, DATA
  9 .ccmram       00000000  10000000  10000000  00020018  2**0
                  CONTENTS
 10 .bss          00000028  20000018  20000018  00020018  2**2
                  ALLOC
 11 ._user_heap_stack 00000600  20000040  20000040  00020018  2**0
                  ALLOC
 12 .ARM.attributes 00000030  00000000  00000000  00020018  2**0
                  CONTENTS, READONLY
 13 .debug_info   00001423  00000000  00000000  00020048  2**0
                  CONTENTS, READONLY, DEBUGGING, OCTETS
 14 .debug_abbrev 0000052e  00000000  00000000  0002146b  2**0
                  CONTENTS, READONLY, DEBUGGING, OCTETS
 15 .debug_aranges 00000158  00000000  00000000  000219a0  2**3
                  CONTENTS, READONLY, DEBUGGING, OCTETS
 16 .debug_ranges 00000120  00000000  00000000  00021af8  2**3
                  CONTENTS, READONLY, DEBUGGING, OCTETS
 17 .debug_macro  00003033  00000000  00000000  00021c18  2**0
                  CONTENTS, READONLY, DEBUGGING, OCTETS
 18 .debug_line   00001a75  00000000  00000000  00024c4b  2**0
                  CONTENTS, READONLY, DEBUGGING, OCTETS
 19 .debug_str    0000c2a1  00000000  00000000  000266c0  2**0
                  CONTENTS, READONLY, DEBUGGING, OCTETS
 20 .comment      00000050  00000000  00000000  00032961  2**0
                  CONTENTS, READONLY
 21 .debug_frame  000004b4  00000000  00000000  000329b4  2**2
                  CONTENTS, READONLY, DEBUGGING, OCTETS

Disassembly of section .text:

080001a8 <__do_global_dtors_aux>:
 80001a8:	b510      	push	{r4, lr}
 80001aa:	4c05      	ldr	r4, [pc, #20]	; (80001c0 <__do_global_dtors_aux+0x18>)
 80001ac:	7823      	ldrb	r3, [r4, #0]
 80001ae:	b933      	cbnz	r3, 80001be <__do_global_dtors_aux+0x16>
 80001b0:	4b04      	ldr	r3, [pc, #16]	; (80001c4 <__do_global_dtors_aux+0x1c>)
 80001b2:	b113      	cbz	r3, 80001ba <__do_global_dtors_aux+0x12>
 80001b4:	4804      	ldr	r0, [pc, #16]	; (80001c8 <__do_global_dtors_aux+0x20>)
 80001b6:	f3af 8000 	nop.w
 80001ba:	2301      	movs	r3, #1
 80001bc:	7023      	strb	r3, [r4, #0]
 80001be:	bd10      	pop	{r4, pc}
 80001c0:	20000018 	.word	0x20000018
 80001c4:	00000000 	.word	0x00000000
 80001c8:	08000e58 	.word	0x08000e58

080001cc <frame_dummy>:
 80001cc:	b508      	push	{r3, lr}
 80001ce:	4b03      	ldr	r3, [pc, #12]	; (80001dc <frame_dummy+0x10>)
 80001d0:	b11b      	cbz	r3, 80001da <frame_dummy+0xe>
 80001d2:	4903      	ldr	r1, [pc, #12]	; (80001e0 <frame_dummy+0x14>)
 80001d4:	4803      	ldr	r0, [pc, #12]	; (80001e4 <frame_dummy+0x18>)
 80001d6:	f3af 8000 	nop.w
 80001da:	bd08      	pop	{r3, pc}
 80001dc:	00000000 	.word	0x00000000
 80001e0:	2000001c 	.word	0x2000001c
 80001e4:	08000e58 	.word	0x08000e58

080001e8 <strlen>:
 80001e8:	4603      	mov	r3, r0
 80001ea:	f813 2b01 	ldrb.w	r2, [r3], #1
 80001ee:	2a00      	cmp	r2, #0
 80001f0:	d1fb      	bne.n	80001ea <strlen+0x2>
 80001f2:	1a18      	subs	r0, r3, r0
 80001f4:	3801      	subs	r0, #1
 80001f6:	4770      	bx	lr

080001f8 <delay>:
} I2CGPIOHandle_t;

// Global handle for use with the interrupt
I2C_Handle_t myI2CHandle;

void delay(uint16_t ms){
 80001f8:	b480      	push	{r7}
 80001fa:	b085      	sub	sp, #20
 80001fc:	af00      	add	r7, sp, #0
 80001fe:	4603      	mov	r3, r0
 8000200:	80fb      	strh	r3, [r7, #6]
	for(uint32_t i = 0; i < (ms*1000); i++);
 8000202:	2300      	movs	r3, #0
 8000204:	60fb      	str	r3, [r7, #12]
 8000206:	e002      	b.n	800020e <delay+0x16>
 8000208:	68fb      	ldr	r3, [r7, #12]
 800020a:	3301      	adds	r3, #1
 800020c:	60fb      	str	r3, [r7, #12]
 800020e:	88fb      	ldrh	r3, [r7, #6]
 8000210:	f44f 727a 	mov.w	r2, #1000	; 0x3e8
 8000214:	fb02 f303 	mul.w	r3, r2, r3
 8000218:	461a      	mov	r2, r3
 800021a:	68fb      	ldr	r3, [r7, #12]
 800021c:	4293      	cmp	r3, r2
 800021e:	d3f3      	bcc.n	8000208 <delay+0x10>
}
 8000220:	bf00      	nop
 8000222:	bf00      	nop
 8000224:	3714      	adds	r7, #20
 8000226:	46bd      	mov	sp, r7
 8000228:	f85d 7b04 	ldr.w	r7, [sp], #4
 800022c:	4770      	bx	lr
	...

08000230 <I2C1GPIOInit>:

void I2C1GPIOInit(I2CGPIOHandle_t *pI2CGPIOHandle){
 8000230:	b580      	push	{r7, lr}
 8000232:	b082      	sub	sp, #8
 8000234:	af00      	add	r7, sp, #0
 8000236:	6078      	str	r0, [r7, #4]
	pI2CGPIOHandle->SCL.pGPIOx = GPIOB;
 8000238:	687b      	ldr	r3, [r7, #4]
 800023a:	4a1b      	ldr	r2, [pc, #108]	; (80002a8 <I2C1GPIOInit+0x78>)
 800023c:	60da      	str	r2, [r3, #12]
	pI2CGPIOHandle->SCL.GPIO_PinConfig.GPIO_PinNumber = GPIO_PIN_NO_6;
 800023e:	687b      	ldr	r3, [r7, #4]
 8000240:	2206      	movs	r2, #6
 8000242:	741a      	strb	r2, [r3, #16]
	pI2CGPIOHandle->SCL.GPIO_PinConfig.GPIO_PinMode = GPIO_MODE_ALTFN;
 8000244:	687b      	ldr	r3, [r7, #4]
 8000246:	2202      	movs	r2, #2
 8000248:	745a      	strb	r2, [r3, #17]
	pI2CGPIOHandle->SCL.GPIO_PinConfig.GPIO_PinAltFunMode = 4;
 800024a:	687b      	ldr	r3, [r7, #4]
 800024c:	2204      	movs	r2, #4
 800024e:	755a      	strb	r2, [r3, #21]
	pI2CGPIOHandle->SCL.GPIO_PinConfig.GPIO_PinOPType = GPIO_OP_TYPE_OD;
 8000250:	687b      	ldr	r3, [r7, #4]
 8000252:	2201      	movs	r2, #1
 8000254:	751a      	strb	r2, [r3, #20]
	pI2CGPIOHandle->SCL.GPIO_PinConfig.GPIO_PinPuPdControl = GPIO_NO_PUPD;
 8000256:	687b      	ldr	r3, [r7, #4]
 8000258:	2200      	movs	r2, #0
 800025a:	74da      	strb	r2, [r3, #19]
	pI2CGPIOHandle->SCL.GPIO_PinConfig.GPIO_PinSpeed = GPIO_SPEED_FAST;
 800025c:	687b      	ldr	r3, [r7, #4]
 800025e:	2202      	movs	r2, #2
 8000260:	749a      	strb	r2, [r3, #18]

	pI2CGPIOHandle->SDA.pGPIOx = GPIOB;
 8000262:	687b      	ldr	r3, [r7, #4]
 8000264:	4a10      	ldr	r2, [pc, #64]	; (80002a8 <I2C1GPIOInit+0x78>)
 8000266:	601a      	str	r2, [r3, #0]
	pI2CGPIOHandle->SDA.GPIO_PinConfig.GPIO_PinNumber = GPIO_PIN_NO_7;
 8000268:	687b      	ldr	r3, [r7, #4]
 800026a:	2207      	movs	r2, #7
 800026c:	711a      	strb	r2, [r3, #4]
	pI2CGPIOHandle->SDA.GPIO_PinConfig.GPIO_PinMode = GPIO_MODE_ALTFN;
 800026e:	687b      	ldr	r3, [r7, #4]
 8000270:	2202      	movs	r2, #2
 8000272:	715a      	strb	r2, [r3, #5]
	pI2CGPIOHandle->SDA.GPIO_PinConfig.GPIO_PinAltFunMode = 4;
 8000274:	687b      	ldr	r3, [r7, #4]
 8000276:	2204      	movs	r2, #4
 8000278:	725a      	strb	r2, [r3, #9]
	pI2CGPIOHandle->SDA.GPIO_PinConfig.GPIO_PinOPType = GPIO_OP_TYPE_OD;
 800027a:	687b      	ldr	r3, [r7, #4]
 800027c:	2201      	movs	r2, #1
 800027e:	721a      	strb	r2, [r3, #8]
	pI2CGPIOHandle->SDA.GPIO_PinConfig.GPIO_PinPuPdControl = GPIO_NO_PUPD;
 8000280:	687b      	ldr	r3, [r7, #4]
 8000282:	2200      	movs	r2, #0
 8000284:	71da      	strb	r2, [r3, #7]
	pI2CGPIOHandle->SDA.GPIO_PinConfig.GPIO_PinSpeed = GPIO_SPEED_FAST;
 8000286:	687b      	ldr	r3, [r7, #4]
 8000288:	2202      	movs	r2, #2
 800028a:	719a      	strb	r2, [r3, #6]

	GPIO_Init(&(pI2CGPIOHandle->SDA));
 800028c:	687b      	ldr	r3, [r7, #4]
 800028e:	4618      	mov	r0, r3
 8000290:	f000 f99e 	bl	80005d0 <GPIO_Init>
	GPIO_Init(&(pI2CGPIOHandle->SCL));
 8000294:	687b      	ldr	r3, [r7, #4]
 8000296:	330c      	adds	r3, #12
 8000298:	4618      	mov	r0, r3
 800029a:	f000 f999 	bl	80005d0 <GPIO_Init>
}
 800029e:	bf00      	nop
 80002a0:	3708      	adds	r7, #8
 80002a2:	46bd      	mov	sp, r7
 80002a4:	bd80      	pop	{r7, pc}
 80002a6:	bf00      	nop
 80002a8:	40020400 	.word	0x40020400

080002ac <I2C1_Init>:

void I2C1_Init(I2C_Handle_t *pI2CHandle){
 80002ac:	b580      	push	{r7, lr}
 80002ae:	b082      	sub	sp, #8
 80002b0:	af00      	add	r7, sp, #0
 80002b2:	6078      	str	r0, [r7, #4]
	pI2CHandle->pI2Cx = I2C1;
 80002b4:	687b      	ldr	r3, [r7, #4]
 80002b6:	4a0a      	ldr	r2, [pc, #40]	; (80002e0 <I2C1_Init+0x34>)
 80002b8:	601a      	str	r2, [r3, #0]
	pI2CHandle->I2C_Config.AckControl = I2C_ACK_ENABLE;
 80002ba:	687b      	ldr	r3, [r7, #4]
 80002bc:	2201      	movs	r2, #1
 80002be:	725a      	strb	r2, [r3, #9]
	pI2CHandle->I2C_Config.DeviceAddress = 0x7F;
 80002c0:	687b      	ldr	r3, [r7, #4]
 80002c2:	227f      	movs	r2, #127	; 0x7f
 80002c4:	721a      	strb	r2, [r3, #8]
	pI2CHandle->I2C_Config.FMDutyCycle = I2C_FM_DUTY_2;
 80002c6:	687b      	ldr	r3, [r7, #4]
 80002c8:	2200      	movs	r2, #0
 80002ca:	729a      	strb	r2, [r3, #10]
	pI2CHandle->I2C_Config.SCLSpeed = I2C_SCL_SPEED_SM;
 80002cc:	687b      	ldr	r3, [r7, #4]
 80002ce:	4a05      	ldr	r2, [pc, #20]	; (80002e4 <I2C1_Init+0x38>)
 80002d0:	605a      	str	r2, [r3, #4]

	I2C_Init(pI2CHandle);
 80002d2:	6878      	ldr	r0, [r7, #4]
 80002d4:	f000 fc46 	bl	8000b64 <I2C_Init>
}
 80002d8:	bf00      	nop
 80002da:	3708      	adds	r7, #8
 80002dc:	46bd      	mov	sp, r7
 80002de:	bd80      	pop	{r7, pc}
 80002e0:	40005400 	.word	0x40005400
 80002e4:	000186a0 	.word	0x000186a0

080002e8 <USRBTN_Init>:

void USRBTN_Init(GPIO_Handle_t* pUSRPB){
 80002e8:	b580      	push	{r7, lr}
 80002ea:	b082      	sub	sp, #8
 80002ec:	af00      	add	r7, sp, #0
 80002ee:	6078      	str	r0, [r7, #4]
	pUSRPB->pGPIOx = GPIOA;
 80002f0:	687b      	ldr	r3, [r7, #4]
 80002f2:	4a0a      	ldr	r2, [pc, #40]	; (800031c <USRBTN_Init+0x34>)
 80002f4:	601a      	str	r2, [r3, #0]
	pUSRPB->GPIO_PinConfig.GPIO_PinNumber = GPIO_PIN_NO_0;
 80002f6:	687b      	ldr	r3, [r7, #4]
 80002f8:	2200      	movs	r2, #0
 80002fa:	711a      	strb	r2, [r3, #4]
	pUSRPB->GPIO_PinConfig.GPIO_PinMode = GPIO_MODE_IT_RT;
 80002fc:	687b      	ldr	r3, [r7, #4]
 80002fe:	2205      	movs	r2, #5
 8000300:	715a      	strb	r2, [r3, #5]
	pUSRPB->GPIO_PinConfig.GPIO_PinSpeed = GPIO_SPEED_FAST;
 8000302:	687b      	ldr	r3, [r7, #4]
 8000304:	2202      	movs	r2, #2
 8000306:	719a      	strb	r2, [r3, #6]
	pUSRPB->GPIO_PinConfig.GPIO_PinPuPdControl = GPIO_NO_PUPD;
 8000308:	687b      	ldr	r3, [r7, #4]
 800030a:	2200      	movs	r2, #0
 800030c:	71da      	strb	r2, [r3, #7]

	GPIO_Init(pUSRPB);
 800030e:	6878      	ldr	r0, [r7, #4]
 8000310:	f000 f95e 	bl	80005d0 <GPIO_Init>
}
 8000314:	bf00      	nop
 8000316:	3708      	adds	r7, #8
 8000318:	46bd      	mov	sp, r7
 800031a:	bd80      	pop	{r7, pc}
 800031c:	40020000 	.word	0x40020000

08000320 <sendMessage>:

void sendMessage(){
 8000320:	b580      	push	{r7, lr}
 8000322:	b082      	sub	sp, #8
 8000324:	af00      	add	r7, sp, #0
	char* message = "Yo Janiyah";
 8000326:	4b0e      	ldr	r3, [pc, #56]	; (8000360 <sendMessage+0x40>)
 8000328:	607b      	str	r3, [r7, #4]
	uint8_t addr = 0x00;
 800032a:	2300      	movs	r3, #0
 800032c:	70fb      	strb	r3, [r7, #3]

	// Enable I2C1
	I2C_PeripheralControl(myI2CHandle.pI2Cx, ENABLE);
 800032e:	4b0d      	ldr	r3, [pc, #52]	; (8000364 <sendMessage+0x44>)
 8000330:	681b      	ldr	r3, [r3, #0]
 8000332:	2101      	movs	r1, #1
 8000334:	4618      	mov	r0, r3
 8000336:	f000 fd4e 	bl	8000dd6 <I2C_PeripheralControl>

	I2C_MasterSendData(&myI2CHandle, (uint8_t*)message, strlen(message), addr);
 800033a:	6878      	ldr	r0, [r7, #4]
 800033c:	f7ff ff54 	bl	80001e8 <strlen>
 8000340:	4602      	mov	r2, r0
 8000342:	78fb      	ldrb	r3, [r7, #3]
 8000344:	6879      	ldr	r1, [r7, #4]
 8000346:	4807      	ldr	r0, [pc, #28]	; (8000364 <sendMessage+0x44>)
 8000348:	f000 fce2 	bl	8000d10 <I2C_MasterSendData>

	I2C_PeripheralControl(myI2CHandle.pI2Cx, DISABLE);
 800034c:	4b05      	ldr	r3, [pc, #20]	; (8000364 <sendMessage+0x44>)
 800034e:	681b      	ldr	r3, [r3, #0]
 8000350:	2100      	movs	r1, #0
 8000352:	4618      	mov	r0, r3
 8000354:	f000 fd3f 	bl	8000dd6 <I2C_PeripheralControl>
}
 8000358:	bf00      	nop
 800035a:	3708      	adds	r7, #8
 800035c:	46bd      	mov	sp, r7
 800035e:	bd80      	pop	{r7, pc}
 8000360:	08000e70 	.word	0x08000e70
 8000364:	20000034 	.word	0x20000034

08000368 <main>:

int main(){
 8000368:	b580      	push	{r7, lr}
 800036a:	b08a      	sub	sp, #40	; 0x28
 800036c:	af00      	add	r7, sp, #0
	// Initialize the GPIO's to be used for I2C
	I2CGPIOHandle_t I2C1GPIOs;
	I2C1GPIOInit(&I2C1GPIOs);
 800036e:	f107 0310 	add.w	r3, r7, #16
 8000372:	4618      	mov	r0, r3
 8000374:	f7ff ff5c 	bl	8000230 <I2C1GPIOInit>

	// Initialize I2C1 itself
	I2C1_Init(&myI2CHandle);
 8000378:	4803      	ldr	r0, [pc, #12]	; (8000388 <main+0x20>)
 800037a:	f7ff ff97 	bl	80002ac <I2C1_Init>

	// Initialize push button
	GPIO_Handle_t USRPB;
	USRBTN_Init(&USRPB);
 800037e:	1d3b      	adds	r3, r7, #4
 8000380:	4618      	mov	r0, r3
 8000382:	f7ff ffb1 	bl	80002e8 <USRBTN_Init>

	while(1);
 8000386:	e7fe      	b.n	8000386 <main+0x1e>
 8000388:	20000034 	.word	0x20000034

0800038c <EXTI0_IRQHandler>:
}

void EXTI0_IRQHandler(void){
 800038c:	b580      	push	{r7, lr}
 800038e:	af00      	add	r7, sp, #0
	delay(200);
 8000390:	20c8      	movs	r0, #200	; 0xc8
 8000392:	f7ff ff31 	bl	80001f8 <delay>
	GPIO_IRQHandling(GPIO_PIN_NO_0);
 8000396:	2000      	movs	r0, #0
 8000398:	f000 fac4 	bl	8000924 <GPIO_IRQHandling>
	sendMessage();
 800039c:	f7ff ffc0 	bl	8000320 <sendMessage>
}
 80003a0:	bf00      	nop
 80003a2:	bd80      	pop	{r7, pc}

080003a4 <Reset_Handler>:

  .section .text.Reset_Handler
  .weak Reset_Handler
  .type Reset_Handler, %function
Reset_Handler:
  ldr   r0, =_estack
 80003a4:	480d      	ldr	r0, [pc, #52]	; (80003dc <LoopForever+0x2>)
  mov   sp, r0          /* set stack pointer */
 80003a6:	4685      	mov	sp, r0
/* Call the clock system initialization function.*/
  bl  SystemInit
 80003a8:	f3af 8000 	nop.w

/* Copy the data segment initializers from flash to SRAM */
  ldr r0, =_sdata
 80003ac:	480c      	ldr	r0, [pc, #48]	; (80003e0 <LoopForever+0x6>)
  ldr r1, =_edata
 80003ae:	490d      	ldr	r1, [pc, #52]	; (80003e4 <LoopForever+0xa>)
  ldr r2, =_sidata
 80003b0:	4a0d      	ldr	r2, [pc, #52]	; (80003e8 <LoopForever+0xe>)
  movs r3, #0
 80003b2:	2300      	movs	r3, #0
  b LoopCopyDataInit
 80003b4:	e002      	b.n	80003bc <LoopCopyDataInit>

080003b6 <CopyDataInit>:

CopyDataInit:
  ldr r4, [r2, r3]
 80003b6:	58d4      	ldr	r4, [r2, r3]
  str r4, [r0, r3]
 80003b8:	50c4      	str	r4, [r0, r3]
  adds r3, r3, #4
 80003ba:	3304      	adds	r3, #4

080003bc <LoopCopyDataInit>:

LoopCopyDataInit:
  adds r4, r0, r3
 80003bc:	18c4      	adds	r4, r0, r3
  cmp r4, r1
 80003be:	428c      	cmp	r4, r1
  bcc CopyDataInit
 80003c0:	d3f9      	bcc.n	80003b6 <CopyDataInit>

/* Zero fill the bss segment. */
  ldr r2, =_sbss
 80003c2:	4a0a      	ldr	r2, [pc, #40]	; (80003ec <LoopForever+0x12>)
  ldr r4, =_ebss
 80003c4:	4c0a      	ldr	r4, [pc, #40]	; (80003f0 <LoopForever+0x16>)
  movs r3, #0
 80003c6:	2300      	movs	r3, #0
  b LoopFillZerobss
 80003c8:	e001      	b.n	80003ce <LoopFillZerobss>

080003ca <FillZerobss>:

FillZerobss:
  str  r3, [r2]
 80003ca:	6013      	str	r3, [r2, #0]
  adds r2, r2, #4
 80003cc:	3204      	adds	r2, #4

080003ce <LoopFillZerobss>:

LoopFillZerobss:
  cmp r2, r4
 80003ce:	42a2      	cmp	r2, r4
  bcc FillZerobss
 80003d0:	d3fb      	bcc.n	80003ca <FillZerobss>

/* Call static constructors */
  bl __libc_init_array
 80003d2:	f000 fd1d 	bl	8000e10 <__libc_init_array>
/* Call the application's entry point.*/
  bl main
 80003d6:	f7ff ffc7 	bl	8000368 <main>

080003da <LoopForever>:

LoopForever:
    b LoopForever
 80003da:	e7fe      	b.n	80003da <LoopForever>
  ldr   r0, =_estack
 80003dc:	20020000 	.word	0x20020000
  ldr r0, =_sdata
 80003e0:	20000000 	.word	0x20000000
  ldr r1, =_edata
 80003e4:	20000018 	.word	0x20000018
  ldr r2, =_sidata
 80003e8:	08000e84 	.word	0x08000e84
  ldr r2, =_sbss
 80003ec:	20000018 	.word	0x20000018
  ldr r4, =_ebss
 80003f0:	20000040 	.word	0x20000040

080003f4 <ADC_IRQHandler>:
 * @retval : None
*/
  .section .text.Default_Handler,"ax",%progbits
Default_Handler:
Infinite_Loop:
  b Infinite_Loop
 80003f4:	e7fe      	b.n	80003f4 <ADC_IRQHandler>
	...

080003f8 <GPIO_PeriClockControl>:
 *
 * @return		- none
 *
 * @Note		- none
 */
void GPIO_PeriClockControl(GPIO_RegDef_t *pGPIOx, uint8_t EnorDi){
 80003f8:	b480      	push	{r7}
 80003fa:	b083      	sub	sp, #12
 80003fc:	af00      	add	r7, sp, #0
 80003fe:	6078      	str	r0, [r7, #4]
 8000400:	460b      	mov	r3, r1
 8000402:	70fb      	strb	r3, [r7, #3]
	if(EnorDi == ENABLE){
 8000404:	78fb      	ldrb	r3, [r7, #3]
 8000406:	2b01      	cmp	r3, #1
 8000408:	d162      	bne.n	80004d0 <GPIO_PeriClockControl+0xd8>
		if(pGPIOx == GPIOA)
 800040a:	687b      	ldr	r3, [r7, #4]
 800040c:	4a66      	ldr	r2, [pc, #408]	; (80005a8 <GPIO_PeriClockControl+0x1b0>)
 800040e:	4293      	cmp	r3, r2
 8000410:	d106      	bne.n	8000420 <GPIO_PeriClockControl+0x28>
			GPIOA_PCLK_EN();
 8000412:	4b66      	ldr	r3, [pc, #408]	; (80005ac <GPIO_PeriClockControl+0x1b4>)
 8000414:	6b1b      	ldr	r3, [r3, #48]	; 0x30
 8000416:	4a65      	ldr	r2, [pc, #404]	; (80005ac <GPIO_PeriClockControl+0x1b4>)
 8000418:	f043 0301 	orr.w	r3, r3, #1
 800041c:	6313      	str	r3, [r2, #48]	; 0x30
		else if (pGPIOx == GPIOH)
			GPIOH_PCLK_DI();
		else if (pGPIOx == GPIOI)
			GPIOI_PCLK_DI();
	}
}
 800041e:	e0bc      	b.n	800059a <GPIO_PeriClockControl+0x1a2>
		else if (pGPIOx == GPIOB)
 8000420:	687b      	ldr	r3, [r7, #4]
 8000422:	4a63      	ldr	r2, [pc, #396]	; (80005b0 <GPIO_PeriClockControl+0x1b8>)
 8000424:	4293      	cmp	r3, r2
 8000426:	d106      	bne.n	8000436 <GPIO_PeriClockControl+0x3e>
			GPIOB_PCLK_EN();
 8000428:	4b60      	ldr	r3, [pc, #384]	; (80005ac <GPIO_PeriClockControl+0x1b4>)
 800042a:	6b1b      	ldr	r3, [r3, #48]	; 0x30
 800042c:	4a5f      	ldr	r2, [pc, #380]	; (80005ac <GPIO_PeriClockControl+0x1b4>)
 800042e:	f043 0302 	orr.w	r3, r3, #2
 8000432:	6313      	str	r3, [r2, #48]	; 0x30
}
 8000434:	e0b1      	b.n	800059a <GPIO_PeriClockControl+0x1a2>
		else if (pGPIOx == GPIOC)
 8000436:	687b      	ldr	r3, [r7, #4]
 8000438:	4a5e      	ldr	r2, [pc, #376]	; (80005b4 <GPIO_PeriClockControl+0x1bc>)
 800043a:	4293      	cmp	r3, r2
 800043c:	d106      	bne.n	800044c <GPIO_PeriClockControl+0x54>
			GPIOC_PCLK_EN();
 800043e:	4b5b      	ldr	r3, [pc, #364]	; (80005ac <GPIO_PeriClockControl+0x1b4>)
 8000440:	6b1b      	ldr	r3, [r3, #48]	; 0x30
 8000442:	4a5a      	ldr	r2, [pc, #360]	; (80005ac <GPIO_PeriClockControl+0x1b4>)
 8000444:	f043 0304 	orr.w	r3, r3, #4
 8000448:	6313      	str	r3, [r2, #48]	; 0x30
}
 800044a:	e0a6      	b.n	800059a <GPIO_PeriClockControl+0x1a2>
		else if (pGPIOx == GPIOD)
 800044c:	687b      	ldr	r3, [r7, #4]
 800044e:	4a5a      	ldr	r2, [pc, #360]	; (80005b8 <GPIO_PeriClockControl+0x1c0>)
 8000450:	4293      	cmp	r3, r2
 8000452:	d106      	bne.n	8000462 <GPIO_PeriClockControl+0x6a>
			GPIOD_PCLK_EN();
 8000454:	4b55      	ldr	r3, [pc, #340]	; (80005ac <GPIO_PeriClockControl+0x1b4>)
 8000456:	6b1b      	ldr	r3, [r3, #48]	; 0x30
 8000458:	4a54      	ldr	r2, [pc, #336]	; (80005ac <GPIO_PeriClockControl+0x1b4>)
 800045a:	f043 0308 	orr.w	r3, r3, #8
 800045e:	6313      	str	r3, [r2, #48]	; 0x30
}
 8000460:	e09b      	b.n	800059a <GPIO_PeriClockControl+0x1a2>
		else if (pGPIOx == GPIOE)
 8000462:	687b      	ldr	r3, [r7, #4]
 8000464:	4a55      	ldr	r2, [pc, #340]	; (80005bc <GPIO_PeriClockControl+0x1c4>)
 8000466:	4293      	cmp	r3, r2
 8000468:	d106      	bne.n	8000478 <GPIO_PeriClockControl+0x80>
			GPIOE_PCLK_EN();
 800046a:	4b50      	ldr	r3, [pc, #320]	; (80005ac <GPIO_PeriClockControl+0x1b4>)
 800046c:	6b1b      	ldr	r3, [r3, #48]	; 0x30
 800046e:	4a4f      	ldr	r2, [pc, #316]	; (80005ac <GPIO_PeriClockControl+0x1b4>)
 8000470:	f043 0310 	orr.w	r3, r3, #16
 8000474:	6313      	str	r3, [r2, #48]	; 0x30
}
 8000476:	e090      	b.n	800059a <GPIO_PeriClockControl+0x1a2>
		else if (pGPIOx == GPIOF)
 8000478:	687b      	ldr	r3, [r7, #4]
 800047a:	4a51      	ldr	r2, [pc, #324]	; (80005c0 <GPIO_PeriClockControl+0x1c8>)
 800047c:	4293      	cmp	r3, r2
 800047e:	d106      	bne.n	800048e <GPIO_PeriClockControl+0x96>
			GPIOF_PCLK_EN();
 8000480:	4b4a      	ldr	r3, [pc, #296]	; (80005ac <GPIO_PeriClockControl+0x1b4>)
 8000482:	6b1b      	ldr	r3, [r3, #48]	; 0x30
 8000484:	4a49      	ldr	r2, [pc, #292]	; (80005ac <GPIO_PeriClockControl+0x1b4>)
 8000486:	f043 0320 	orr.w	r3, r3, #32
 800048a:	6313      	str	r3, [r2, #48]	; 0x30
}
 800048c:	e085      	b.n	800059a <GPIO_PeriClockControl+0x1a2>
		else if (pGPIOx == GPIOG)
 800048e:	687b      	ldr	r3, [r7, #4]
 8000490:	4a4c      	ldr	r2, [pc, #304]	; (80005c4 <GPIO_PeriClockControl+0x1cc>)
 8000492:	4293      	cmp	r3, r2
 8000494:	d106      	bne.n	80004a4 <GPIO_PeriClockControl+0xac>
			GPIOG_PCLK_EN();
 8000496:	4b45      	ldr	r3, [pc, #276]	; (80005ac <GPIO_PeriClockControl+0x1b4>)
 8000498:	6b1b      	ldr	r3, [r3, #48]	; 0x30
 800049a:	4a44      	ldr	r2, [pc, #272]	; (80005ac <GPIO_PeriClockControl+0x1b4>)
 800049c:	f043 0340 	orr.w	r3, r3, #64	; 0x40
 80004a0:	6313      	str	r3, [r2, #48]	; 0x30
}
 80004a2:	e07a      	b.n	800059a <GPIO_PeriClockControl+0x1a2>
		else if (pGPIOx == GPIOH)
 80004a4:	687b      	ldr	r3, [r7, #4]
 80004a6:	4a48      	ldr	r2, [pc, #288]	; (80005c8 <GPIO_PeriClockControl+0x1d0>)
 80004a8:	4293      	cmp	r3, r2
 80004aa:	d106      	bne.n	80004ba <GPIO_PeriClockControl+0xc2>
			GPIOH_PCLK_EN();
 80004ac:	4b3f      	ldr	r3, [pc, #252]	; (80005ac <GPIO_PeriClockControl+0x1b4>)
 80004ae:	6b1b      	ldr	r3, [r3, #48]	; 0x30
 80004b0:	4a3e      	ldr	r2, [pc, #248]	; (80005ac <GPIO_PeriClockControl+0x1b4>)
 80004b2:	f043 0380 	orr.w	r3, r3, #128	; 0x80
 80004b6:	6313      	str	r3, [r2, #48]	; 0x30
}
 80004b8:	e06f      	b.n	800059a <GPIO_PeriClockControl+0x1a2>
		else if (pGPIOx == GPIOI)
 80004ba:	687b      	ldr	r3, [r7, #4]
 80004bc:	4a43      	ldr	r2, [pc, #268]	; (80005cc <GPIO_PeriClockControl+0x1d4>)
 80004be:	4293      	cmp	r3, r2
 80004c0:	d16b      	bne.n	800059a <GPIO_PeriClockControl+0x1a2>
			GPIOI_PCLK_EN();
 80004c2:	4b3a      	ldr	r3, [pc, #232]	; (80005ac <GPIO_PeriClockControl+0x1b4>)
 80004c4:	6b1b      	ldr	r3, [r3, #48]	; 0x30
 80004c6:	4a39      	ldr	r2, [pc, #228]	; (80005ac <GPIO_PeriClockControl+0x1b4>)
 80004c8:	f443 7380 	orr.w	r3, r3, #256	; 0x100
 80004cc:	6313      	str	r3, [r2, #48]	; 0x30
}
 80004ce:	e064      	b.n	800059a <GPIO_PeriClockControl+0x1a2>
	} else if (EnorDi == DISABLE){
 80004d0:	78fb      	ldrb	r3, [r7, #3]
 80004d2:	2b00      	cmp	r3, #0
 80004d4:	d161      	bne.n	800059a <GPIO_PeriClockControl+0x1a2>
		if(pGPIOx == GPIOA)
 80004d6:	687b      	ldr	r3, [r7, #4]
 80004d8:	4a33      	ldr	r2, [pc, #204]	; (80005a8 <GPIO_PeriClockControl+0x1b0>)
 80004da:	4293      	cmp	r3, r2
 80004dc:	d106      	bne.n	80004ec <GPIO_PeriClockControl+0xf4>
			GPIOA_PCLK_DI();
 80004de:	4b33      	ldr	r3, [pc, #204]	; (80005ac <GPIO_PeriClockControl+0x1b4>)
 80004e0:	6b1b      	ldr	r3, [r3, #48]	; 0x30
 80004e2:	4a32      	ldr	r2, [pc, #200]	; (80005ac <GPIO_PeriClockControl+0x1b4>)
 80004e4:	f023 0301 	bic.w	r3, r3, #1
 80004e8:	6313      	str	r3, [r2, #48]	; 0x30
}
 80004ea:	e056      	b.n	800059a <GPIO_PeriClockControl+0x1a2>
		else if (pGPIOx == GPIOB)
 80004ec:	687b      	ldr	r3, [r7, #4]
 80004ee:	4a30      	ldr	r2, [pc, #192]	; (80005b0 <GPIO_PeriClockControl+0x1b8>)
 80004f0:	4293      	cmp	r3, r2
 80004f2:	d106      	bne.n	8000502 <GPIO_PeriClockControl+0x10a>
			GPIOB_PCLK_DI();
 80004f4:	4b2d      	ldr	r3, [pc, #180]	; (80005ac <GPIO_PeriClockControl+0x1b4>)
 80004f6:	6b1b      	ldr	r3, [r3, #48]	; 0x30
 80004f8:	4a2c      	ldr	r2, [pc, #176]	; (80005ac <GPIO_PeriClockControl+0x1b4>)
 80004fa:	f023 0302 	bic.w	r3, r3, #2
 80004fe:	6313      	str	r3, [r2, #48]	; 0x30
}
 8000500:	e04b      	b.n	800059a <GPIO_PeriClockControl+0x1a2>
		else if (pGPIOx == GPIOC)
 8000502:	687b      	ldr	r3, [r7, #4]
 8000504:	4a2b      	ldr	r2, [pc, #172]	; (80005b4 <GPIO_PeriClockControl+0x1bc>)
 8000506:	4293      	cmp	r3, r2
 8000508:	d106      	bne.n	8000518 <GPIO_PeriClockControl+0x120>
			GPIOC_PCLK_DI();
 800050a:	4b28      	ldr	r3, [pc, #160]	; (80005ac <GPIO_PeriClockControl+0x1b4>)
 800050c:	6b1b      	ldr	r3, [r3, #48]	; 0x30
 800050e:	4a27      	ldr	r2, [pc, #156]	; (80005ac <GPIO_PeriClockControl+0x1b4>)
 8000510:	f023 0304 	bic.w	r3, r3, #4
 8000514:	6313      	str	r3, [r2, #48]	; 0x30
}
 8000516:	e040      	b.n	800059a <GPIO_PeriClockControl+0x1a2>
		else if (pGPIOx == GPIOD)
 8000518:	687b      	ldr	r3, [r7, #4]
 800051a:	4a27      	ldr	r2, [pc, #156]	; (80005b8 <GPIO_PeriClockControl+0x1c0>)
 800051c:	4293      	cmp	r3, r2
 800051e:	d106      	bne.n	800052e <GPIO_PeriClockControl+0x136>
			GPIOD_PCLK_DI();
 8000520:	4b22      	ldr	r3, [pc, #136]	; (80005ac <GPIO_PeriClockControl+0x1b4>)
 8000522:	6b1b      	ldr	r3, [r3, #48]	; 0x30
 8000524:	4a21      	ldr	r2, [pc, #132]	; (80005ac <GPIO_PeriClockControl+0x1b4>)
 8000526:	f023 0308 	bic.w	r3, r3, #8
 800052a:	6313      	str	r3, [r2, #48]	; 0x30
}
 800052c:	e035      	b.n	800059a <GPIO_PeriClockControl+0x1a2>
		else if (pGPIOx == GPIOE)
 800052e:	687b      	ldr	r3, [r7, #4]
 8000530:	4a22      	ldr	r2, [pc, #136]	; (80005bc <GPIO_PeriClockControl+0x1c4>)
 8000532:	4293      	cmp	r3, r2
 8000534:	d106      	bne.n	8000544 <GPIO_PeriClockControl+0x14c>
			GPIOE_PCLK_DI();
 8000536:	4b1d      	ldr	r3, [pc, #116]	; (80005ac <GPIO_PeriClockControl+0x1b4>)
 8000538:	6b1b      	ldr	r3, [r3, #48]	; 0x30
 800053a:	4a1c      	ldr	r2, [pc, #112]	; (80005ac <GPIO_PeriClockControl+0x1b4>)
 800053c:	f023 0310 	bic.w	r3, r3, #16
 8000540:	6313      	str	r3, [r2, #48]	; 0x30
}
 8000542:	e02a      	b.n	800059a <GPIO_PeriClockControl+0x1a2>
		else if (pGPIOx == GPIOF)
 8000544:	687b      	ldr	r3, [r7, #4]
 8000546:	4a1e      	ldr	r2, [pc, #120]	; (80005c0 <GPIO_PeriClockControl+0x1c8>)
 8000548:	4293      	cmp	r3, r2
 800054a:	d106      	bne.n	800055a <GPIO_PeriClockControl+0x162>
			GPIOF_PCLK_DI();
 800054c:	4b17      	ldr	r3, [pc, #92]	; (80005ac <GPIO_PeriClockControl+0x1b4>)
 800054e:	6b1b      	ldr	r3, [r3, #48]	; 0x30
 8000550:	4a16      	ldr	r2, [pc, #88]	; (80005ac <GPIO_PeriClockControl+0x1b4>)
 8000552:	f023 0320 	bic.w	r3, r3, #32
 8000556:	6313      	str	r3, [r2, #48]	; 0x30
}
 8000558:	e01f      	b.n	800059a <GPIO_PeriClockControl+0x1a2>
		else if (pGPIOx == GPIOG)
 800055a:	687b      	ldr	r3, [r7, #4]
 800055c:	4a19      	ldr	r2, [pc, #100]	; (80005c4 <GPIO_PeriClockControl+0x1cc>)
 800055e:	4293      	cmp	r3, r2
 8000560:	d106      	bne.n	8000570 <GPIO_PeriClockControl+0x178>
			GPIOG_PCLK_DI();
 8000562:	4b12      	ldr	r3, [pc, #72]	; (80005ac <GPIO_PeriClockControl+0x1b4>)
 8000564:	6b1b      	ldr	r3, [r3, #48]	; 0x30
 8000566:	4a11      	ldr	r2, [pc, #68]	; (80005ac <GPIO_PeriClockControl+0x1b4>)
 8000568:	f023 0340 	bic.w	r3, r3, #64	; 0x40
 800056c:	6313      	str	r3, [r2, #48]	; 0x30
}
 800056e:	e014      	b.n	800059a <GPIO_PeriClockControl+0x1a2>
		else if (pGPIOx == GPIOH)
 8000570:	687b      	ldr	r3, [r7, #4]
 8000572:	4a15      	ldr	r2, [pc, #84]	; (80005c8 <GPIO_PeriClockControl+0x1d0>)
 8000574:	4293      	cmp	r3, r2
 8000576:	d106      	bne.n	8000586 <GPIO_PeriClockControl+0x18e>
			GPIOH_PCLK_DI();
 8000578:	4b0c      	ldr	r3, [pc, #48]	; (80005ac <GPIO_PeriClockControl+0x1b4>)
 800057a:	6b1b      	ldr	r3, [r3, #48]	; 0x30
 800057c:	4a0b      	ldr	r2, [pc, #44]	; (80005ac <GPIO_PeriClockControl+0x1b4>)
 800057e:	f023 0380 	bic.w	r3, r3, #128	; 0x80
 8000582:	6313      	str	r3, [r2, #48]	; 0x30
}
 8000584:	e009      	b.n	800059a <GPIO_PeriClockControl+0x1a2>
		else if (pGPIOx == GPIOI)
 8000586:	687b      	ldr	r3, [r7, #4]
 8000588:	4a10      	ldr	r2, [pc, #64]	; (80005cc <GPIO_PeriClockControl+0x1d4>)
 800058a:	4293      	cmp	r3, r2
 800058c:	d105      	bne.n	800059a <GPIO_PeriClockControl+0x1a2>
			GPIOI_PCLK_DI();
 800058e:	4b07      	ldr	r3, [pc, #28]	; (80005ac <GPIO_PeriClockControl+0x1b4>)
 8000590:	6b1b      	ldr	r3, [r3, #48]	; 0x30
 8000592:	4a06      	ldr	r2, [pc, #24]	; (80005ac <GPIO_PeriClockControl+0x1b4>)
 8000594:	f423 7380 	bic.w	r3, r3, #256	; 0x100
 8000598:	6313      	str	r3, [r2, #48]	; 0x30
}
 800059a:	bf00      	nop
 800059c:	370c      	adds	r7, #12
 800059e:	46bd      	mov	sp, r7
 80005a0:	f85d 7b04 	ldr.w	r7, [sp], #4
 80005a4:	4770      	bx	lr
 80005a6:	bf00      	nop
 80005a8:	40020000 	.word	0x40020000
 80005ac:	40023800 	.word	0x40023800
 80005b0:	40020400 	.word	0x40020400
 80005b4:	40020800 	.word	0x40020800
 80005b8:	40020c00 	.word	0x40020c00
 80005bc:	40021000 	.word	0x40021000
 80005c0:	40021400 	.word	0x40021400
 80005c4:	40021800 	.word	0x40021800
 80005c8:	40021c00 	.word	0x40021c00
 80005cc:	40022000 	.word	0x40022000

080005d0 <GPIO_Init>:
 *
 * @return		- none
 *
 * @Note		- none
 */
void GPIO_Init(GPIO_Handle_t *pGPIOHandle){
 80005d0:	b580      	push	{r7, lr}
 80005d2:	b086      	sub	sp, #24
 80005d4:	af00      	add	r7, sp, #0
 80005d6:	6078      	str	r0, [r7, #4]
	GPIO_PeriClockControl(pGPIOHandle->pGPIOx, ENABLE);
 80005d8:	687b      	ldr	r3, [r7, #4]
 80005da:	681b      	ldr	r3, [r3, #0]
 80005dc:	2101      	movs	r1, #1
 80005de:	4618      	mov	r0, r3
 80005e0:	f7ff ff0a 	bl	80003f8 <GPIO_PeriClockControl>

	uint32_t temp = 0;
 80005e4:	2300      	movs	r3, #0
 80005e6:	617b      	str	r3, [r7, #20]
	// 1. Configure the mode of the GPIO pin

	// This block will execute if the pin mode is a non-interrupt mode
	if(pGPIOHandle->GPIO_PinConfig.GPIO_PinMode <= GPIO_MODE_ANALOG){
 80005e8:	687b      	ldr	r3, [r7, #4]
 80005ea:	795b      	ldrb	r3, [r3, #5]
 80005ec:	2b03      	cmp	r3, #3
 80005ee:	d820      	bhi.n	8000632 <GPIO_Init+0x62>
		// this temp variable stores the appropriate pin mode shifted by the number of bits
		// it takes to get to the appropriate bits for the pin in the port mode register.
		// The "2" multiplier is there because there are two bits per pin
		temp = (pGPIOHandle->GPIO_PinConfig.GPIO_PinMode << (2 * pGPIOHandle->GPIO_PinConfig.GPIO_PinNumber));
 80005f0:	687b      	ldr	r3, [r7, #4]
 80005f2:	795b      	ldrb	r3, [r3, #5]
 80005f4:	461a      	mov	r2, r3
 80005f6:	687b      	ldr	r3, [r7, #4]
 80005f8:	791b      	ldrb	r3, [r3, #4]
 80005fa:	005b      	lsls	r3, r3, #1
 80005fc:	fa02 f303 	lsl.w	r3, r2, r3
 8000600:	617b      	str	r3, [r7, #20]
		pGPIOHandle->pGPIOx->MODER &= ~(0x3 << (2 * pGPIOHandle->GPIO_PinConfig.GPIO_PinNumber)); // clearing
 8000602:	687b      	ldr	r3, [r7, #4]
 8000604:	681b      	ldr	r3, [r3, #0]
 8000606:	681a      	ldr	r2, [r3, #0]
 8000608:	687b      	ldr	r3, [r7, #4]
 800060a:	791b      	ldrb	r3, [r3, #4]
 800060c:	005b      	lsls	r3, r3, #1
 800060e:	2103      	movs	r1, #3
 8000610:	fa01 f303 	lsl.w	r3, r1, r3
 8000614:	43db      	mvns	r3, r3
 8000616:	4619      	mov	r1, r3
 8000618:	687b      	ldr	r3, [r7, #4]
 800061a:	681b      	ldr	r3, [r3, #0]
 800061c:	400a      	ands	r2, r1
 800061e:	601a      	str	r2, [r3, #0]
		pGPIOHandle->pGPIOx->MODER |= temp;  // settting
 8000620:	687b      	ldr	r3, [r7, #4]
 8000622:	681b      	ldr	r3, [r3, #0]
 8000624:	6819      	ldr	r1, [r3, #0]
 8000626:	687b      	ldr	r3, [r7, #4]
 8000628:	681b      	ldr	r3, [r3, #0]
 800062a:	697a      	ldr	r2, [r7, #20]
 800062c:	430a      	orrs	r2, r1
 800062e:	601a      	str	r2, [r3, #0]
 8000630:	e0d0      	b.n	80007d4 <GPIO_Init+0x204>
	}
	// This block will execute if the pin mode is an interrupt mode
	else{
		if (pGPIOHandle->GPIO_PinConfig.GPIO_PinMode == GPIO_MODE_IT_FT){
 8000632:	687b      	ldr	r3, [r7, #4]
 8000634:	795b      	ldrb	r3, [r3, #5]
 8000636:	2b04      	cmp	r3, #4
 8000638:	d117      	bne.n	800066a <GPIO_Init+0x9a>
			// 1. Configure the Falling trigger selection register (FTSR)
			EXTI->FTSR |= (1 << pGPIOHandle->GPIO_PinConfig.GPIO_PinNumber);
 800063a:	4b4c      	ldr	r3, [pc, #304]	; (800076c <GPIO_Init+0x19c>)
 800063c:	68db      	ldr	r3, [r3, #12]
 800063e:	687a      	ldr	r2, [r7, #4]
 8000640:	7912      	ldrb	r2, [r2, #4]
 8000642:	4611      	mov	r1, r2
 8000644:	2201      	movs	r2, #1
 8000646:	408a      	lsls	r2, r1
 8000648:	4611      	mov	r1, r2
 800064a:	4a48      	ldr	r2, [pc, #288]	; (800076c <GPIO_Init+0x19c>)
 800064c:	430b      	orrs	r3, r1
 800064e:	60d3      	str	r3, [r2, #12]
			EXTI->RTSR &= ~(1 << pGPIOHandle->GPIO_PinConfig.GPIO_PinNumber);
 8000650:	4b46      	ldr	r3, [pc, #280]	; (800076c <GPIO_Init+0x19c>)
 8000652:	689b      	ldr	r3, [r3, #8]
 8000654:	687a      	ldr	r2, [r7, #4]
 8000656:	7912      	ldrb	r2, [r2, #4]
 8000658:	4611      	mov	r1, r2
 800065a:	2201      	movs	r2, #1
 800065c:	408a      	lsls	r2, r1
 800065e:	43d2      	mvns	r2, r2
 8000660:	4611      	mov	r1, r2
 8000662:	4a42      	ldr	r2, [pc, #264]	; (800076c <GPIO_Init+0x19c>)
 8000664:	400b      	ands	r3, r1
 8000666:	6093      	str	r3, [r2, #8]
 8000668:	e031      	b.n	80006ce <GPIO_Init+0xfe>
		} else if (pGPIOHandle->GPIO_PinConfig.GPIO_PinMode == GPIO_MODE_IT_RT){
 800066a:	687b      	ldr	r3, [r7, #4]
 800066c:	795b      	ldrb	r3, [r3, #5]
 800066e:	2b05      	cmp	r3, #5
 8000670:	d117      	bne.n	80006a2 <GPIO_Init+0xd2>
			// 1. Configure the rising trigger selection register (RTSR)
			EXTI->RTSR |= (1 << pGPIOHandle->GPIO_PinConfig.GPIO_PinNumber);
 8000672:	4b3e      	ldr	r3, [pc, #248]	; (800076c <GPIO_Init+0x19c>)
 8000674:	689b      	ldr	r3, [r3, #8]
 8000676:	687a      	ldr	r2, [r7, #4]
 8000678:	7912      	ldrb	r2, [r2, #4]
 800067a:	4611      	mov	r1, r2
 800067c:	2201      	movs	r2, #1
 800067e:	408a      	lsls	r2, r1
 8000680:	4611      	mov	r1, r2
 8000682:	4a3a      	ldr	r2, [pc, #232]	; (800076c <GPIO_Init+0x19c>)
 8000684:	430b      	orrs	r3, r1
 8000686:	6093      	str	r3, [r2, #8]
			EXTI->FTSR &= ~(1 << pGPIOHandle->GPIO_PinConfig.GPIO_PinNumber);
 8000688:	4b38      	ldr	r3, [pc, #224]	; (800076c <GPIO_Init+0x19c>)
 800068a:	68db      	ldr	r3, [r3, #12]
 800068c:	687a      	ldr	r2, [r7, #4]
 800068e:	7912      	ldrb	r2, [r2, #4]
 8000690:	4611      	mov	r1, r2
 8000692:	2201      	movs	r2, #1
 8000694:	408a      	lsls	r2, r1
 8000696:	43d2      	mvns	r2, r2
 8000698:	4611      	mov	r1, r2
 800069a:	4a34      	ldr	r2, [pc, #208]	; (800076c <GPIO_Init+0x19c>)
 800069c:	400b      	ands	r3, r1
 800069e:	60d3      	str	r3, [r2, #12]
 80006a0:	e015      	b.n	80006ce <GPIO_Init+0xfe>
		} else {
			// 1. Configure both registers (RSTR and FTSR)
			EXTI->RTSR |= (1 << pGPIOHandle->GPIO_PinConfig.GPIO_PinNumber);
 80006a2:	4b32      	ldr	r3, [pc, #200]	; (800076c <GPIO_Init+0x19c>)
 80006a4:	689b      	ldr	r3, [r3, #8]
 80006a6:	687a      	ldr	r2, [r7, #4]
 80006a8:	7912      	ldrb	r2, [r2, #4]
 80006aa:	4611      	mov	r1, r2
 80006ac:	2201      	movs	r2, #1
 80006ae:	408a      	lsls	r2, r1
 80006b0:	4611      	mov	r1, r2
 80006b2:	4a2e      	ldr	r2, [pc, #184]	; (800076c <GPIO_Init+0x19c>)
 80006b4:	430b      	orrs	r3, r1
 80006b6:	6093      	str	r3, [r2, #8]
			EXTI->FTSR |= (1 << pGPIOHandle->GPIO_PinConfig.GPIO_PinNumber);
 80006b8:	4b2c      	ldr	r3, [pc, #176]	; (800076c <GPIO_Init+0x19c>)
 80006ba:	68db      	ldr	r3, [r3, #12]
 80006bc:	687a      	ldr	r2, [r7, #4]
 80006be:	7912      	ldrb	r2, [r2, #4]
 80006c0:	4611      	mov	r1, r2
 80006c2:	2201      	movs	r2, #1
 80006c4:	408a      	lsls	r2, r1
 80006c6:	4611      	mov	r1, r2
 80006c8:	4a28      	ldr	r2, [pc, #160]	; (800076c <GPIO_Init+0x19c>)
 80006ca:	430b      	orrs	r3, r1
 80006cc:	60d3      	str	r3, [r2, #12]
		}

		// 2. Configure the GPIO port selection in SYSCFG_EXTICR

		SYSCFG_PCLK_EN();
 80006ce:	4b28      	ldr	r3, [pc, #160]	; (8000770 <GPIO_Init+0x1a0>)
 80006d0:	6c5b      	ldr	r3, [r3, #68]	; 0x44
 80006d2:	4a27      	ldr	r2, [pc, #156]	; (8000770 <GPIO_Init+0x1a0>)
 80006d4:	f443 4380 	orr.w	r3, r3, #16384	; 0x4000
 80006d8:	6453      	str	r3, [r2, #68]	; 0x44

		uint8_t temp1 = pGPIOHandle->GPIO_PinConfig.GPIO_PinNumber / 4;
 80006da:	687b      	ldr	r3, [r7, #4]
 80006dc:	791b      	ldrb	r3, [r3, #4]
 80006de:	089b      	lsrs	r3, r3, #2
 80006e0:	74fb      	strb	r3, [r7, #19]
		uint8_t temp2 = pGPIOHandle->GPIO_PinConfig.GPIO_PinNumber % 4;
 80006e2:	687b      	ldr	r3, [r7, #4]
 80006e4:	791b      	ldrb	r3, [r3, #4]
 80006e6:	f003 0303 	and.w	r3, r3, #3
 80006ea:	74bb      	strb	r3, [r7, #18]

		uint8_t portcode = GPIO_BASEADDR_TO_CODE(pGPIOHandle->pGPIOx);
 80006ec:	687b      	ldr	r3, [r7, #4]
 80006ee:	681b      	ldr	r3, [r3, #0]
 80006f0:	4a20      	ldr	r2, [pc, #128]	; (8000774 <GPIO_Init+0x1a4>)
 80006f2:	4293      	cmp	r3, r2
 80006f4:	d050      	beq.n	8000798 <GPIO_Init+0x1c8>
 80006f6:	687b      	ldr	r3, [r7, #4]
 80006f8:	681b      	ldr	r3, [r3, #0]
 80006fa:	4a1f      	ldr	r2, [pc, #124]	; (8000778 <GPIO_Init+0x1a8>)
 80006fc:	4293      	cmp	r3, r2
 80006fe:	d032      	beq.n	8000766 <GPIO_Init+0x196>
 8000700:	687b      	ldr	r3, [r7, #4]
 8000702:	681b      	ldr	r3, [r3, #0]
 8000704:	4a1d      	ldr	r2, [pc, #116]	; (800077c <GPIO_Init+0x1ac>)
 8000706:	4293      	cmp	r3, r2
 8000708:	d02b      	beq.n	8000762 <GPIO_Init+0x192>
 800070a:	687b      	ldr	r3, [r7, #4]
 800070c:	681b      	ldr	r3, [r3, #0]
 800070e:	4a1c      	ldr	r2, [pc, #112]	; (8000780 <GPIO_Init+0x1b0>)
 8000710:	4293      	cmp	r3, r2
 8000712:	d024      	beq.n	800075e <GPIO_Init+0x18e>
 8000714:	687b      	ldr	r3, [r7, #4]
 8000716:	681b      	ldr	r3, [r3, #0]
 8000718:	4a1a      	ldr	r2, [pc, #104]	; (8000784 <GPIO_Init+0x1b4>)
 800071a:	4293      	cmp	r3, r2
 800071c:	d01d      	beq.n	800075a <GPIO_Init+0x18a>
 800071e:	687b      	ldr	r3, [r7, #4]
 8000720:	681b      	ldr	r3, [r3, #0]
 8000722:	4a19      	ldr	r2, [pc, #100]	; (8000788 <GPIO_Init+0x1b8>)
 8000724:	4293      	cmp	r3, r2
 8000726:	d016      	beq.n	8000756 <GPIO_Init+0x186>
 8000728:	687b      	ldr	r3, [r7, #4]
 800072a:	681b      	ldr	r3, [r3, #0]
 800072c:	4a17      	ldr	r2, [pc, #92]	; (800078c <GPIO_Init+0x1bc>)
 800072e:	4293      	cmp	r3, r2
 8000730:	d00f      	beq.n	8000752 <GPIO_Init+0x182>
 8000732:	687b      	ldr	r3, [r7, #4]
 8000734:	681b      	ldr	r3, [r3, #0]
 8000736:	4a16      	ldr	r2, [pc, #88]	; (8000790 <GPIO_Init+0x1c0>)
 8000738:	4293      	cmp	r3, r2
 800073a:	d008      	beq.n	800074e <GPIO_Init+0x17e>
 800073c:	687b      	ldr	r3, [r7, #4]
 800073e:	681b      	ldr	r3, [r3, #0]
 8000740:	4a14      	ldr	r2, [pc, #80]	; (8000794 <GPIO_Init+0x1c4>)
 8000742:	4293      	cmp	r3, r2
 8000744:	d101      	bne.n	800074a <GPIO_Init+0x17a>
 8000746:	2308      	movs	r3, #8
 8000748:	e027      	b.n	800079a <GPIO_Init+0x1ca>
 800074a:	2300      	movs	r3, #0
 800074c:	e025      	b.n	800079a <GPIO_Init+0x1ca>
 800074e:	2307      	movs	r3, #7
 8000750:	e023      	b.n	800079a <GPIO_Init+0x1ca>
 8000752:	2306      	movs	r3, #6
 8000754:	e021      	b.n	800079a <GPIO_Init+0x1ca>
 8000756:	2305      	movs	r3, #5
 8000758:	e01f      	b.n	800079a <GPIO_Init+0x1ca>
 800075a:	2304      	movs	r3, #4
 800075c:	e01d      	b.n	800079a <GPIO_Init+0x1ca>
 800075e:	2303      	movs	r3, #3
 8000760:	e01b      	b.n	800079a <GPIO_Init+0x1ca>
 8000762:	2302      	movs	r3, #2
 8000764:	e019      	b.n	800079a <GPIO_Init+0x1ca>
 8000766:	2301      	movs	r3, #1
 8000768:	e017      	b.n	800079a <GPIO_Init+0x1ca>
 800076a:	bf00      	nop
 800076c:	40013c00 	.word	0x40013c00
 8000770:	40023800 	.word	0x40023800
 8000774:	40020000 	.word	0x40020000
 8000778:	40020400 	.word	0x40020400
 800077c:	40020800 	.word	0x40020800
 8000780:	40020c00 	.word	0x40020c00
 8000784:	40021000 	.word	0x40021000
 8000788:	40021400 	.word	0x40021400
 800078c:	40021800 	.word	0x40021800
 8000790:	40021c00 	.word	0x40021c00
 8000794:	40022000 	.word	0x40022000
 8000798:	2300      	movs	r3, #0
 800079a:	747b      	strb	r3, [r7, #17]

		SYSCFG->EXTICR[temp1] |= (portcode << (temp2 * 4));
 800079c:	4a5f      	ldr	r2, [pc, #380]	; (800091c <GPIO_Init+0x34c>)
 800079e:	7cfb      	ldrb	r3, [r7, #19]
 80007a0:	3302      	adds	r3, #2
 80007a2:	f852 2023 	ldr.w	r2, [r2, r3, lsl #2]
 80007a6:	7c79      	ldrb	r1, [r7, #17]
 80007a8:	7cbb      	ldrb	r3, [r7, #18]
 80007aa:	009b      	lsls	r3, r3, #2
 80007ac:	fa01 f303 	lsl.w	r3, r1, r3
 80007b0:	4618      	mov	r0, r3
 80007b2:	495a      	ldr	r1, [pc, #360]	; (800091c <GPIO_Init+0x34c>)
 80007b4:	7cfb      	ldrb	r3, [r7, #19]
 80007b6:	4302      	orrs	r2, r0
 80007b8:	3302      	adds	r3, #2
 80007ba:	f841 2023 	str.w	r2, [r1, r3, lsl #2]

		// 3. Enable the EXTI interrupt delivery using IMR
		EXTI->IMR |= (1 << pGPIOHandle->GPIO_PinConfig.GPIO_PinNumber);
 80007be:	4b58      	ldr	r3, [pc, #352]	; (8000920 <GPIO_Init+0x350>)
 80007c0:	681b      	ldr	r3, [r3, #0]
 80007c2:	687a      	ldr	r2, [r7, #4]
 80007c4:	7912      	ldrb	r2, [r2, #4]
 80007c6:	4611      	mov	r1, r2
 80007c8:	2201      	movs	r2, #1
 80007ca:	408a      	lsls	r2, r1
 80007cc:	4611      	mov	r1, r2
 80007ce:	4a54      	ldr	r2, [pc, #336]	; (8000920 <GPIO_Init+0x350>)
 80007d0:	430b      	orrs	r3, r1
 80007d2:	6013      	str	r3, [r2, #0]
	}
	temp = 0;
 80007d4:	2300      	movs	r3, #0
 80007d6:	617b      	str	r3, [r7, #20]

	// 2. Configure the speed
	temp = (pGPIOHandle->GPIO_PinConfig.GPIO_PinSpeed << (2 * pGPIOHandle->GPIO_PinConfig.GPIO_PinNumber));
 80007d8:	687b      	ldr	r3, [r7, #4]
 80007da:	799b      	ldrb	r3, [r3, #6]
 80007dc:	461a      	mov	r2, r3
 80007de:	687b      	ldr	r3, [r7, #4]
 80007e0:	791b      	ldrb	r3, [r3, #4]
 80007e2:	005b      	lsls	r3, r3, #1
 80007e4:	fa02 f303 	lsl.w	r3, r2, r3
 80007e8:	617b      	str	r3, [r7, #20]
	pGPIOHandle->pGPIOx->OSPEEDR &= ~(0x3 << (2 * pGPIOHandle->GPIO_PinConfig.GPIO_PinNumber)); // clearing
 80007ea:	687b      	ldr	r3, [r7, #4]
 80007ec:	681b      	ldr	r3, [r3, #0]
 80007ee:	689a      	ldr	r2, [r3, #8]
 80007f0:	687b      	ldr	r3, [r7, #4]
 80007f2:	791b      	ldrb	r3, [r3, #4]
 80007f4:	005b      	lsls	r3, r3, #1
 80007f6:	2103      	movs	r1, #3
 80007f8:	fa01 f303 	lsl.w	r3, r1, r3
 80007fc:	43db      	mvns	r3, r3
 80007fe:	4619      	mov	r1, r3
 8000800:	687b      	ldr	r3, [r7, #4]
 8000802:	681b      	ldr	r3, [r3, #0]
 8000804:	400a      	ands	r2, r1
 8000806:	609a      	str	r2, [r3, #8]
	pGPIOHandle->pGPIOx->OSPEEDR |= temp;
 8000808:	687b      	ldr	r3, [r7, #4]
 800080a:	681b      	ldr	r3, [r3, #0]
 800080c:	6899      	ldr	r1, [r3, #8]
 800080e:	687b      	ldr	r3, [r7, #4]
 8000810:	681b      	ldr	r3, [r3, #0]
 8000812:	697a      	ldr	r2, [r7, #20]
 8000814:	430a      	orrs	r2, r1
 8000816:	609a      	str	r2, [r3, #8]
	temp = 0;
 8000818:	2300      	movs	r3, #0
 800081a:	617b      	str	r3, [r7, #20]

	// 3. Configure the PUPD settings
	temp = (pGPIOHandle->GPIO_PinConfig.GPIO_PinPuPdControl << (2 * pGPIOHandle->GPIO_PinConfig.GPIO_PinNumber));
 800081c:	687b      	ldr	r3, [r7, #4]
 800081e:	79db      	ldrb	r3, [r3, #7]
 8000820:	461a      	mov	r2, r3
 8000822:	687b      	ldr	r3, [r7, #4]
 8000824:	791b      	ldrb	r3, [r3, #4]
 8000826:	005b      	lsls	r3, r3, #1
 8000828:	fa02 f303 	lsl.w	r3, r2, r3
 800082c:	617b      	str	r3, [r7, #20]
	pGPIOHandle->pGPIOx->PUPDR &= ~(0x3 << (2 * pGPIOHandle->GPIO_PinConfig.GPIO_PinNumber)); // clearing
 800082e:	687b      	ldr	r3, [r7, #4]
 8000830:	681b      	ldr	r3, [r3, #0]
 8000832:	68da      	ldr	r2, [r3, #12]
 8000834:	687b      	ldr	r3, [r7, #4]
 8000836:	791b      	ldrb	r3, [r3, #4]
 8000838:	005b      	lsls	r3, r3, #1
 800083a:	2103      	movs	r1, #3
 800083c:	fa01 f303 	lsl.w	r3, r1, r3
 8000840:	43db      	mvns	r3, r3
 8000842:	4619      	mov	r1, r3
 8000844:	687b      	ldr	r3, [r7, #4]
 8000846:	681b      	ldr	r3, [r3, #0]
 8000848:	400a      	ands	r2, r1
 800084a:	60da      	str	r2, [r3, #12]
	pGPIOHandle->pGPIOx->PUPDR |= temp;
 800084c:	687b      	ldr	r3, [r7, #4]
 800084e:	681b      	ldr	r3, [r3, #0]
 8000850:	68d9      	ldr	r1, [r3, #12]
 8000852:	687b      	ldr	r3, [r7, #4]
 8000854:	681b      	ldr	r3, [r3, #0]
 8000856:	697a      	ldr	r2, [r7, #20]
 8000858:	430a      	orrs	r2, r1
 800085a:	60da      	str	r2, [r3, #12]
	temp = 0;
 800085c:	2300      	movs	r3, #0
 800085e:	617b      	str	r3, [r7, #20]

	if(pGPIOHandle->GPIO_PinConfig.GPIO_PinMode == GPIO_MODE_OUT){
 8000860:	687b      	ldr	r3, [r7, #4]
 8000862:	795b      	ldrb	r3, [r3, #5]
 8000864:	2b01      	cmp	r3, #1
 8000866:	d11f      	bne.n	80008a8 <GPIO_Init+0x2d8>
		// 4. Configure the output type
		temp = (pGPIOHandle->GPIO_PinConfig.GPIO_PinOPType << (pGPIOHandle->GPIO_PinConfig.GPIO_PinNumber));
 8000868:	687b      	ldr	r3, [r7, #4]
 800086a:	7a1b      	ldrb	r3, [r3, #8]
 800086c:	461a      	mov	r2, r3
 800086e:	687b      	ldr	r3, [r7, #4]
 8000870:	791b      	ldrb	r3, [r3, #4]
 8000872:	fa02 f303 	lsl.w	r3, r2, r3
 8000876:	617b      	str	r3, [r7, #20]
		pGPIOHandle->pGPIOx->OTYPER &= ~(0x1 << pGPIOHandle->GPIO_PinConfig.GPIO_PinNumber); // clearing
 8000878:	687b      	ldr	r3, [r7, #4]
 800087a:	681b      	ldr	r3, [r3, #0]
 800087c:	685a      	ldr	r2, [r3, #4]
 800087e:	687b      	ldr	r3, [r7, #4]
 8000880:	791b      	ldrb	r3, [r3, #4]
 8000882:	4619      	mov	r1, r3
 8000884:	2301      	movs	r3, #1
 8000886:	408b      	lsls	r3, r1
 8000888:	43db      	mvns	r3, r3
 800088a:	4619      	mov	r1, r3
 800088c:	687b      	ldr	r3, [r7, #4]
 800088e:	681b      	ldr	r3, [r3, #0]
 8000890:	400a      	ands	r2, r1
 8000892:	605a      	str	r2, [r3, #4]
		pGPIOHandle->pGPIOx->OTYPER |= temp;
 8000894:	687b      	ldr	r3, [r7, #4]
 8000896:	681b      	ldr	r3, [r3, #0]
 8000898:	6859      	ldr	r1, [r3, #4]
 800089a:	687b      	ldr	r3, [r7, #4]
 800089c:	681b      	ldr	r3, [r3, #0]
 800089e:	697a      	ldr	r2, [r7, #20]
 80008a0:	430a      	orrs	r2, r1
 80008a2:	605a      	str	r2, [r3, #4]
		temp = 0;
 80008a4:	2300      	movs	r3, #0
 80008a6:	617b      	str	r3, [r7, #20]
	}

	// 5. Configure the alternate functionality
	if(pGPIOHandle->GPIO_PinConfig.GPIO_PinMode == GPIO_MODE_ALTFN){
 80008a8:	687b      	ldr	r3, [r7, #4]
 80008aa:	795b      	ldrb	r3, [r3, #5]
 80008ac:	2b02      	cmp	r3, #2
 80008ae:	d131      	bne.n	8000914 <GPIO_Init+0x344>
		uint8_t temp1, temp2;
		// set temp equal to the alternate functionality mode, bit-shifted to the left by modulus 8 of the pin number multiplied by 4
		// The modulo is because there are two AFR registers, and the 4-times multiplication is because each pin is represented by 4 bits
		temp1 = pGPIOHandle->GPIO_PinConfig.GPIO_PinNumber / 8;
 80008b0:	687b      	ldr	r3, [r7, #4]
 80008b2:	791b      	ldrb	r3, [r3, #4]
 80008b4:	08db      	lsrs	r3, r3, #3
 80008b6:	743b      	strb	r3, [r7, #16]
		temp2 = pGPIOHandle->GPIO_PinConfig.GPIO_PinNumber % 8;
 80008b8:	687b      	ldr	r3, [r7, #4]
 80008ba:	791b      	ldrb	r3, [r3, #4]
 80008bc:	f003 0307 	and.w	r3, r3, #7
 80008c0:	73fb      	strb	r3, [r7, #15]
		pGPIOHandle->pGPIOx->AFR[temp1] &= ~(0xF << (4 * temp2));
 80008c2:	687b      	ldr	r3, [r7, #4]
 80008c4:	681b      	ldr	r3, [r3, #0]
 80008c6:	7c3a      	ldrb	r2, [r7, #16]
 80008c8:	3208      	adds	r2, #8
 80008ca:	f853 1022 	ldr.w	r1, [r3, r2, lsl #2]
 80008ce:	7bfb      	ldrb	r3, [r7, #15]
 80008d0:	009b      	lsls	r3, r3, #2
 80008d2:	220f      	movs	r2, #15
 80008d4:	fa02 f303 	lsl.w	r3, r2, r3
 80008d8:	43db      	mvns	r3, r3
 80008da:	4618      	mov	r0, r3
 80008dc:	687b      	ldr	r3, [r7, #4]
 80008de:	681b      	ldr	r3, [r3, #0]
 80008e0:	7c3a      	ldrb	r2, [r7, #16]
 80008e2:	4001      	ands	r1, r0
 80008e4:	3208      	adds	r2, #8
 80008e6:	f843 1022 	str.w	r1, [r3, r2, lsl #2]
		pGPIOHandle->pGPIOx->AFR[temp1] |= (pGPIOHandle->GPIO_PinConfig.GPIO_PinAltFunMode << (4 * temp2));
 80008ea:	687b      	ldr	r3, [r7, #4]
 80008ec:	681b      	ldr	r3, [r3, #0]
 80008ee:	7c3a      	ldrb	r2, [r7, #16]
 80008f0:	3208      	adds	r2, #8
 80008f2:	f853 1022 	ldr.w	r1, [r3, r2, lsl #2]
 80008f6:	687b      	ldr	r3, [r7, #4]
 80008f8:	7a5b      	ldrb	r3, [r3, #9]
 80008fa:	461a      	mov	r2, r3
 80008fc:	7bfb      	ldrb	r3, [r7, #15]
 80008fe:	009b      	lsls	r3, r3, #2
 8000900:	fa02 f303 	lsl.w	r3, r2, r3
 8000904:	4618      	mov	r0, r3
 8000906:	687b      	ldr	r3, [r7, #4]
 8000908:	681b      	ldr	r3, [r3, #0]
 800090a:	7c3a      	ldrb	r2, [r7, #16]
 800090c:	4301      	orrs	r1, r0
 800090e:	3208      	adds	r2, #8
 8000910:	f843 1022 	str.w	r1, [r3, r2, lsl #2]
	}


}
 8000914:	bf00      	nop
 8000916:	3718      	adds	r7, #24
 8000918:	46bd      	mov	sp, r7
 800091a:	bd80      	pop	{r7, pc}
 800091c:	40013800 	.word	0x40013800
 8000920:	40013c00 	.word	0x40013c00

08000924 <GPIO_IRQHandling>:
 *
 * @return		- none
 *
 * @Note		- none
 */
void GPIO_IRQHandling(uint8_t pinNumber){
 8000924:	b480      	push	{r7}
 8000926:	b083      	sub	sp, #12
 8000928:	af00      	add	r7, sp, #0
 800092a:	4603      	mov	r3, r0
 800092c:	71fb      	strb	r3, [r7, #7]
	if(EXTI->PR & (1 << pinNumber)){
 800092e:	4b0c      	ldr	r3, [pc, #48]	; (8000960 <GPIO_IRQHandling+0x3c>)
 8000930:	695b      	ldr	r3, [r3, #20]
 8000932:	79fa      	ldrb	r2, [r7, #7]
 8000934:	2101      	movs	r1, #1
 8000936:	fa01 f202 	lsl.w	r2, r1, r2
 800093a:	4013      	ands	r3, r2
 800093c:	2b00      	cmp	r3, #0
 800093e:	d009      	beq.n	8000954 <GPIO_IRQHandling+0x30>
		// Clear the pending register by writing 1 to the corresponding bit
		EXTI->PR |= (1 << pinNumber);
 8000940:	4b07      	ldr	r3, [pc, #28]	; (8000960 <GPIO_IRQHandling+0x3c>)
 8000942:	695b      	ldr	r3, [r3, #20]
 8000944:	79fa      	ldrb	r2, [r7, #7]
 8000946:	2101      	movs	r1, #1
 8000948:	fa01 f202 	lsl.w	r2, r1, r2
 800094c:	4611      	mov	r1, r2
 800094e:	4a04      	ldr	r2, [pc, #16]	; (8000960 <GPIO_IRQHandling+0x3c>)
 8000950:	430b      	orrs	r3, r1
 8000952:	6153      	str	r3, [r2, #20]
	}
}
 8000954:	bf00      	nop
 8000956:	370c      	adds	r7, #12
 8000958:	46bd      	mov	sp, r7
 800095a:	f85d 7b04 	ldr.w	r7, [sp], #4
 800095e:	4770      	bx	lr
 8000960:	40013c00 	.word	0x40013c00

08000964 <I2C_GenerateStartCondition>:
 *
 * @return		- none
 *
 * @Note		- none
 */
static void I2C_GenerateStartCondition(I2C_RegDef_t *pI2Cx){
 8000964:	b480      	push	{r7}
 8000966:	b083      	sub	sp, #12
 8000968:	af00      	add	r7, sp, #0
 800096a:	6078      	str	r0, [r7, #4]
	pI2Cx->CR1 |= (1 << I2C_CR1_START);
 800096c:	687b      	ldr	r3, [r7, #4]
 800096e:	681b      	ldr	r3, [r3, #0]
 8000970:	f443 7280 	orr.w	r2, r3, #256	; 0x100
 8000974:	687b      	ldr	r3, [r7, #4]
 8000976:	601a      	str	r2, [r3, #0]
}
 8000978:	bf00      	nop
 800097a:	370c      	adds	r7, #12
 800097c:	46bd      	mov	sp, r7
 800097e:	f85d 7b04 	ldr.w	r7, [sp], #4
 8000982:	4770      	bx	lr

08000984 <I2C_GenerateStopCondition>:
 *
 * @return		- none
 *
 * @Note		- none
 */
static void I2C_GenerateStopCondition(I2C_RegDef_t *pI2Cx){
 8000984:	b480      	push	{r7}
 8000986:	b083      	sub	sp, #12
 8000988:	af00      	add	r7, sp, #0
 800098a:	6078      	str	r0, [r7, #4]
	pI2Cx->CR1 |= (1 << I2C_CR1_STOP);
 800098c:	687b      	ldr	r3, [r7, #4]
 800098e:	681b      	ldr	r3, [r3, #0]
 8000990:	f443 7200 	orr.w	r2, r3, #512	; 0x200
 8000994:	687b      	ldr	r3, [r7, #4]
 8000996:	601a      	str	r2, [r3, #0]
}
 8000998:	bf00      	nop
 800099a:	370c      	adds	r7, #12
 800099c:	46bd      	mov	sp, r7
 800099e:	f85d 7b04 	ldr.w	r7, [sp], #4
 80009a2:	4770      	bx	lr

080009a4 <I2C_ExecuteAddressPhase>:
 *
 * @return		- none
 *
 * @Note		- none
 */
static void I2C_ExecuteAddressPhase(I2C_RegDef_t *pI2Cx, uint8_t slaveAddr, uint8_t RorW){
 80009a4:	b480      	push	{r7}
 80009a6:	b083      	sub	sp, #12
 80009a8:	af00      	add	r7, sp, #0
 80009aa:	6078      	str	r0, [r7, #4]
 80009ac:	460b      	mov	r3, r1
 80009ae:	70fb      	strb	r3, [r7, #3]
 80009b0:	4613      	mov	r3, r2
 80009b2:	70bb      	strb	r3, [r7, #2]
	if (RorW == READ)
 80009b4:	78bb      	ldrb	r3, [r7, #2]
 80009b6:	2b01      	cmp	r3, #1
 80009b8:	d107      	bne.n	80009ca <I2C_ExecuteAddressPhase+0x26>
		pI2Cx->DR = ((slaveAddr << 1) | (0b00000001));
 80009ba:	78fb      	ldrb	r3, [r7, #3]
 80009bc:	005b      	lsls	r3, r3, #1
 80009be:	f043 0301 	orr.w	r3, r3, #1
 80009c2:	461a      	mov	r2, r3
 80009c4:	687b      	ldr	r3, [r7, #4]
 80009c6:	611a      	str	r2, [r3, #16]
	else if (RorW == WRITE)
		pI2Cx->DR = ((slaveAddr << 1) & ~(0b00000001));
}
 80009c8:	e007      	b.n	80009da <I2C_ExecuteAddressPhase+0x36>
	else if (RorW == WRITE)
 80009ca:	78bb      	ldrb	r3, [r7, #2]
 80009cc:	2b00      	cmp	r3, #0
 80009ce:	d104      	bne.n	80009da <I2C_ExecuteAddressPhase+0x36>
		pI2Cx->DR = ((slaveAddr << 1) & ~(0b00000001));
 80009d0:	78fb      	ldrb	r3, [r7, #3]
 80009d2:	005b      	lsls	r3, r3, #1
 80009d4:	461a      	mov	r2, r3
 80009d6:	687b      	ldr	r3, [r7, #4]
 80009d8:	611a      	str	r2, [r3, #16]
}
 80009da:	bf00      	nop
 80009dc:	370c      	adds	r7, #12
 80009de:	46bd      	mov	sp, r7
 80009e0:	f85d 7b04 	ldr.w	r7, [sp], #4
 80009e4:	4770      	bx	lr

080009e6 <I2C_ClearADDRFlag>:
 *
 * @return		- none
 *
 * @Note		- none
 */
static void I2C_ClearADDRFlag(I2C_RegDef_t *pI2Cx){
 80009e6:	b480      	push	{r7}
 80009e8:	b085      	sub	sp, #20
 80009ea:	af00      	add	r7, sp, #0
 80009ec:	6078      	str	r0, [r7, #4]
	uint32_t dummy;
	dummy = pI2Cx->SR1;
 80009ee:	687b      	ldr	r3, [r7, #4]
 80009f0:	695b      	ldr	r3, [r3, #20]
 80009f2:	60fb      	str	r3, [r7, #12]
	dummy = pI2Cx->SR2;
 80009f4:	687b      	ldr	r3, [r7, #4]
 80009f6:	699b      	ldr	r3, [r3, #24]
 80009f8:	60fb      	str	r3, [r7, #12]
	(void)dummy;
}
 80009fa:	bf00      	nop
 80009fc:	3714      	adds	r7, #20
 80009fe:	46bd      	mov	sp, r7
 8000a00:	f85d 7b04 	ldr.w	r7, [sp], #4
 8000a04:	4770      	bx	lr
	...

08000a08 <I2C_PeriClockControl>:
 *
 * @return		- none
 *
 * @Note		- none
 */
void I2C_PeriClockControl(I2C_RegDef_t *pI2Cx, uint8_t EnorDi){
 8000a08:	b480      	push	{r7}
 8000a0a:	b083      	sub	sp, #12
 8000a0c:	af00      	add	r7, sp, #0
 8000a0e:	6078      	str	r0, [r7, #4]
 8000a10:	460b      	mov	r3, r1
 8000a12:	70fb      	strb	r3, [r7, #3]
	if(EnorDi == ENABLE){
 8000a14:	78fb      	ldrb	r3, [r7, #3]
 8000a16:	2b01      	cmp	r3, #1
 8000a18:	d120      	bne.n	8000a5c <I2C_PeriClockControl+0x54>
		if(pI2Cx == I2C1)
 8000a1a:	687b      	ldr	r3, [r7, #4]
 8000a1c:	4a24      	ldr	r2, [pc, #144]	; (8000ab0 <I2C_PeriClockControl+0xa8>)
 8000a1e:	4293      	cmp	r3, r2
 8000a20:	d106      	bne.n	8000a30 <I2C_PeriClockControl+0x28>
			I2C1_PCLK_EN();
 8000a22:	4b24      	ldr	r3, [pc, #144]	; (8000ab4 <I2C_PeriClockControl+0xac>)
 8000a24:	6c1b      	ldr	r3, [r3, #64]	; 0x40
 8000a26:	4a23      	ldr	r2, [pc, #140]	; (8000ab4 <I2C_PeriClockControl+0xac>)
 8000a28:	f443 1300 	orr.w	r3, r3, #2097152	; 0x200000
 8000a2c:	6413      	str	r3, [r2, #64]	; 0x40
		else if (pI2Cx == I2C2)
			I2C2_PCLK_DI();
		else if (pI2Cx == I2C3)
			I2C3_PCLK_DI();
	}
}
 8000a2e:	e038      	b.n	8000aa2 <I2C_PeriClockControl+0x9a>
		else if (pI2Cx == I2C2)
 8000a30:	687b      	ldr	r3, [r7, #4]
 8000a32:	4a21      	ldr	r2, [pc, #132]	; (8000ab8 <I2C_PeriClockControl+0xb0>)
 8000a34:	4293      	cmp	r3, r2
 8000a36:	d106      	bne.n	8000a46 <I2C_PeriClockControl+0x3e>
			I2C2_PCLK_EN();
 8000a38:	4b1e      	ldr	r3, [pc, #120]	; (8000ab4 <I2C_PeriClockControl+0xac>)
 8000a3a:	6c1b      	ldr	r3, [r3, #64]	; 0x40
 8000a3c:	4a1d      	ldr	r2, [pc, #116]	; (8000ab4 <I2C_PeriClockControl+0xac>)
 8000a3e:	f443 0380 	orr.w	r3, r3, #4194304	; 0x400000
 8000a42:	6413      	str	r3, [r2, #64]	; 0x40
}
 8000a44:	e02d      	b.n	8000aa2 <I2C_PeriClockControl+0x9a>
		else if (pI2Cx == I2C3)
 8000a46:	687b      	ldr	r3, [r7, #4]
 8000a48:	4a1c      	ldr	r2, [pc, #112]	; (8000abc <I2C_PeriClockControl+0xb4>)
 8000a4a:	4293      	cmp	r3, r2
 8000a4c:	d129      	bne.n	8000aa2 <I2C_PeriClockControl+0x9a>
			I2C3_PCLK_EN();
 8000a4e:	4b19      	ldr	r3, [pc, #100]	; (8000ab4 <I2C_PeriClockControl+0xac>)
 8000a50:	6c1b      	ldr	r3, [r3, #64]	; 0x40
 8000a52:	4a18      	ldr	r2, [pc, #96]	; (8000ab4 <I2C_PeriClockControl+0xac>)
 8000a54:	f443 0300 	orr.w	r3, r3, #8388608	; 0x800000
 8000a58:	6413      	str	r3, [r2, #64]	; 0x40
}
 8000a5a:	e022      	b.n	8000aa2 <I2C_PeriClockControl+0x9a>
	} else if (EnorDi == DISABLE){
 8000a5c:	78fb      	ldrb	r3, [r7, #3]
 8000a5e:	2b00      	cmp	r3, #0
 8000a60:	d11f      	bne.n	8000aa2 <I2C_PeriClockControl+0x9a>
		if(pI2Cx == I2C1)
 8000a62:	687b      	ldr	r3, [r7, #4]
 8000a64:	4a12      	ldr	r2, [pc, #72]	; (8000ab0 <I2C_PeriClockControl+0xa8>)
 8000a66:	4293      	cmp	r3, r2
 8000a68:	d106      	bne.n	8000a78 <I2C_PeriClockControl+0x70>
			I2C1_PCLK_DI();
 8000a6a:	4b12      	ldr	r3, [pc, #72]	; (8000ab4 <I2C_PeriClockControl+0xac>)
 8000a6c:	6c1b      	ldr	r3, [r3, #64]	; 0x40
 8000a6e:	4a11      	ldr	r2, [pc, #68]	; (8000ab4 <I2C_PeriClockControl+0xac>)
 8000a70:	f423 1300 	bic.w	r3, r3, #2097152	; 0x200000
 8000a74:	6413      	str	r3, [r2, #64]	; 0x40
}
 8000a76:	e014      	b.n	8000aa2 <I2C_PeriClockControl+0x9a>
		else if (pI2Cx == I2C2)
 8000a78:	687b      	ldr	r3, [r7, #4]
 8000a7a:	4a0f      	ldr	r2, [pc, #60]	; (8000ab8 <I2C_PeriClockControl+0xb0>)
 8000a7c:	4293      	cmp	r3, r2
 8000a7e:	d106      	bne.n	8000a8e <I2C_PeriClockControl+0x86>
			I2C2_PCLK_DI();
 8000a80:	4b0c      	ldr	r3, [pc, #48]	; (8000ab4 <I2C_PeriClockControl+0xac>)
 8000a82:	6c1b      	ldr	r3, [r3, #64]	; 0x40
 8000a84:	4a0b      	ldr	r2, [pc, #44]	; (8000ab4 <I2C_PeriClockControl+0xac>)
 8000a86:	f423 0380 	bic.w	r3, r3, #4194304	; 0x400000
 8000a8a:	6413      	str	r3, [r2, #64]	; 0x40
}
 8000a8c:	e009      	b.n	8000aa2 <I2C_PeriClockControl+0x9a>
		else if (pI2Cx == I2C3)
 8000a8e:	687b      	ldr	r3, [r7, #4]
 8000a90:	4a0a      	ldr	r2, [pc, #40]	; (8000abc <I2C_PeriClockControl+0xb4>)
 8000a92:	4293      	cmp	r3, r2
 8000a94:	d105      	bne.n	8000aa2 <I2C_PeriClockControl+0x9a>
			I2C3_PCLK_DI();
 8000a96:	4b07      	ldr	r3, [pc, #28]	; (8000ab4 <I2C_PeriClockControl+0xac>)
 8000a98:	6c1b      	ldr	r3, [r3, #64]	; 0x40
 8000a9a:	4a06      	ldr	r2, [pc, #24]	; (8000ab4 <I2C_PeriClockControl+0xac>)
 8000a9c:	f423 0300 	bic.w	r3, r3, #8388608	; 0x800000
 8000aa0:	6413      	str	r3, [r2, #64]	; 0x40
}
 8000aa2:	bf00      	nop
 8000aa4:	370c      	adds	r7, #12
 8000aa6:	46bd      	mov	sp, r7
 8000aa8:	f85d 7b04 	ldr.w	r7, [sp], #4
 8000aac:	4770      	bx	lr
 8000aae:	bf00      	nop
 8000ab0:	40005400 	.word	0x40005400
 8000ab4:	40023800 	.word	0x40023800
 8000ab8:	40005800 	.word	0x40005800
 8000abc:	40005c00 	.word	0x40005c00

08000ac0 <RCC_GetPCLK1Value>:
 *
 * @return		- APB1 Clock speed
 *
 * @Note		- none
 */
uint32_t RCC_GetPCLK1Value(void){
 8000ac0:	b480      	push	{r7}
 8000ac2:	b087      	sub	sp, #28
 8000ac4:	af00      	add	r7, sp, #0
	uint32_t pclk1, apb1p, ahbp, systemClk, temp;

	uint8_t clksrc;
	clksrc = (RCC->CFGR >> 2) & 0b11;
 8000ac6:	4b22      	ldr	r3, [pc, #136]	; (8000b50 <RCC_GetPCLK1Value+0x90>)
 8000ac8:	689b      	ldr	r3, [r3, #8]
 8000aca:	089b      	lsrs	r3, r3, #2
 8000acc:	b2db      	uxtb	r3, r3
 8000ace:	f003 0303 	and.w	r3, r3, #3
 8000ad2:	72fb      	strb	r3, [r7, #11]

	// System clock is HSI
	if(clksrc == 0){
 8000ad4:	7afb      	ldrb	r3, [r7, #11]
 8000ad6:	2b00      	cmp	r3, #0
 8000ad8:	d102      	bne.n	8000ae0 <RCC_GetPCLK1Value+0x20>
		systemClk = 16000000;
 8000ada:	4b1e      	ldr	r3, [pc, #120]	; (8000b54 <RCC_GetPCLK1Value+0x94>)
 8000adc:	60fb      	str	r3, [r7, #12]
 8000ade:	e004      	b.n	8000aea <RCC_GetPCLK1Value+0x2a>
	}
	// System clock is HSE
	else if(clksrc == 1){
 8000ae0:	7afb      	ldrb	r3, [r7, #11]
 8000ae2:	2b01      	cmp	r3, #1
 8000ae4:	d101      	bne.n	8000aea <RCC_GetPCLK1Value+0x2a>
		systemClk = 8000000;
 8000ae6:	4b1c      	ldr	r3, [pc, #112]	; (8000b58 <RCC_GetPCLK1Value+0x98>)
 8000ae8:	60fb      	str	r3, [r7, #12]
		// Not used in this course
		// systemClk = RCC_GetPLLOutputClock();
	}

	//AHB Prescaler starts at the fourth bit
	temp = (RCC->CFGR >> 4) & 0b1111;
 8000aea:	4b19      	ldr	r3, [pc, #100]	; (8000b50 <RCC_GetPCLK1Value+0x90>)
 8000aec:	689b      	ldr	r3, [r3, #8]
 8000aee:	091b      	lsrs	r3, r3, #4
 8000af0:	f003 030f 	and.w	r3, r3, #15
 8000af4:	607b      	str	r3, [r7, #4]
	if (temp < 0b1000)
 8000af6:	687b      	ldr	r3, [r7, #4]
 8000af8:	2b07      	cmp	r3, #7
 8000afa:	d802      	bhi.n	8000b02 <RCC_GetPCLK1Value+0x42>
		ahbp = 1;
 8000afc:	2301      	movs	r3, #1
 8000afe:	613b      	str	r3, [r7, #16]
 8000b00:	e005      	b.n	8000b0e <RCC_GetPCLK1Value+0x4e>
	else
		ahbp = AHBPrescaler[temp - 0b1000];
 8000b02:	687b      	ldr	r3, [r7, #4]
 8000b04:	3b08      	subs	r3, #8
 8000b06:	4a15      	ldr	r2, [pc, #84]	; (8000b5c <RCC_GetPCLK1Value+0x9c>)
 8000b08:	f832 3013 	ldrh.w	r3, [r2, r3, lsl #1]
 8000b0c:	613b      	str	r3, [r7, #16]

	//APB1 prescaler starts at 10th bit
	temp = (RCC->CFGR >> 10) & 0b111;
 8000b0e:	4b10      	ldr	r3, [pc, #64]	; (8000b50 <RCC_GetPCLK1Value+0x90>)
 8000b10:	689b      	ldr	r3, [r3, #8]
 8000b12:	0a9b      	lsrs	r3, r3, #10
 8000b14:	f003 0307 	and.w	r3, r3, #7
 8000b18:	607b      	str	r3, [r7, #4]
	if (temp < 0b100)
 8000b1a:	687b      	ldr	r3, [r7, #4]
 8000b1c:	2b03      	cmp	r3, #3
 8000b1e:	d802      	bhi.n	8000b26 <RCC_GetPCLK1Value+0x66>
		apb1p = 1;
 8000b20:	2301      	movs	r3, #1
 8000b22:	617b      	str	r3, [r7, #20]
 8000b24:	e005      	b.n	8000b32 <RCC_GetPCLK1Value+0x72>
	else
		apb1p = APB1Prescaler[temp - 0b100];
 8000b26:	687b      	ldr	r3, [r7, #4]
 8000b28:	3b04      	subs	r3, #4
 8000b2a:	4a0d      	ldr	r2, [pc, #52]	; (8000b60 <RCC_GetPCLK1Value+0xa0>)
 8000b2c:	f832 3013 	ldrh.w	r3, [r2, r3, lsl #1]
 8000b30:	617b      	str	r3, [r7, #20]

	pclk1 = systemClk/(ahbp * apb1p);
 8000b32:	693b      	ldr	r3, [r7, #16]
 8000b34:	697a      	ldr	r2, [r7, #20]
 8000b36:	fb02 f303 	mul.w	r3, r2, r3
 8000b3a:	68fa      	ldr	r2, [r7, #12]
 8000b3c:	fbb2 f3f3 	udiv	r3, r2, r3
 8000b40:	603b      	str	r3, [r7, #0]

	return pclk1;
 8000b42:	683b      	ldr	r3, [r7, #0]
}
 8000b44:	4618      	mov	r0, r3
 8000b46:	371c      	adds	r7, #28
 8000b48:	46bd      	mov	sp, r7
 8000b4a:	f85d 7b04 	ldr.w	r7, [sp], #4
 8000b4e:	4770      	bx	lr
 8000b50:	40023800 	.word	0x40023800
 8000b54:	00f42400 	.word	0x00f42400
 8000b58:	007a1200 	.word	0x007a1200
 8000b5c:	20000000 	.word	0x20000000
 8000b60:	20000010 	.word	0x20000010

08000b64 <I2C_Init>:
 *
 * @return		- none
 *
 * @Note		- none
 */
void I2C_Init(I2C_Handle_t *pI2CHandle){
 8000b64:	b580      	push	{r7, lr}
 8000b66:	b084      	sub	sp, #16
 8000b68:	af00      	add	r7, sp, #0
 8000b6a:	6078      	str	r0, [r7, #4]
	uint32_t tempreg = 0;
 8000b6c:	2300      	movs	r3, #0
 8000b6e:	60fb      	str	r3, [r7, #12]

	tempreg |= (pI2CHandle->I2C_Config.AckControl << 10);
 8000b70:	687b      	ldr	r3, [r7, #4]
 8000b72:	7a5b      	ldrb	r3, [r3, #9]
 8000b74:	029b      	lsls	r3, r3, #10
 8000b76:	461a      	mov	r2, r3
 8000b78:	68fb      	ldr	r3, [r7, #12]
 8000b7a:	4313      	orrs	r3, r2
 8000b7c:	60fb      	str	r3, [r7, #12]
	pI2CHandle->pI2Cx->CR1 = tempreg;
 8000b7e:	687b      	ldr	r3, [r7, #4]
 8000b80:	681b      	ldr	r3, [r3, #0]
 8000b82:	68fa      	ldr	r2, [r7, #12]
 8000b84:	601a      	str	r2, [r3, #0]

	// Configure the FREQ field of CR2
	tempreg = 0;
 8000b86:	2300      	movs	r3, #0
 8000b88:	60fb      	str	r3, [r7, #12]
	tempreg = RCC_GetPCLK1Value() / 1000000U;
 8000b8a:	f7ff ff99 	bl	8000ac0 <RCC_GetPCLK1Value>
 8000b8e:	4603      	mov	r3, r0
 8000b90:	4a53      	ldr	r2, [pc, #332]	; (8000ce0 <I2C_Init+0x17c>)
 8000b92:	fba2 2303 	umull	r2, r3, r2, r3
 8000b96:	0c9b      	lsrs	r3, r3, #18
 8000b98:	60fb      	str	r3, [r7, #12]
	pI2CHandle->pI2Cx->CR2 = (tempreg & 0x3F);
 8000b9a:	687b      	ldr	r3, [r7, #4]
 8000b9c:	681b      	ldr	r3, [r3, #0]
 8000b9e:	68fa      	ldr	r2, [r7, #12]
 8000ba0:	f002 023f 	and.w	r2, r2, #63	; 0x3f
 8000ba4:	605a      	str	r2, [r3, #4]

	// Address configuration
	tempreg = 0;
 8000ba6:	2300      	movs	r3, #0
 8000ba8:	60fb      	str	r3, [r7, #12]
	tempreg = (pI2CHandle->I2C_Config.DeviceAddress << I2C_OAR1_ADD7);
 8000baa:	687b      	ldr	r3, [r7, #4]
 8000bac:	7a1b      	ldrb	r3, [r3, #8]
 8000bae:	005b      	lsls	r3, r3, #1
 8000bb0:	60fb      	str	r3, [r7, #12]
	pI2CHandle->pI2Cx->OAR1 |= tempreg;
 8000bb2:	687b      	ldr	r3, [r7, #4]
 8000bb4:	681b      	ldr	r3, [r3, #0]
 8000bb6:	6899      	ldr	r1, [r3, #8]
 8000bb8:	687b      	ldr	r3, [r7, #4]
 8000bba:	681b      	ldr	r3, [r3, #0]
 8000bbc:	68fa      	ldr	r2, [r7, #12]
 8000bbe:	430a      	orrs	r2, r1
 8000bc0:	609a      	str	r2, [r3, #8]

	// Set to 7-bit slave address mode
	pI2CHandle->pI2Cx->OAR1 &= ~(1 << I2C_OAR1_ADD_MODE);
 8000bc2:	687b      	ldr	r3, [r7, #4]
 8000bc4:	681b      	ldr	r3, [r3, #0]
 8000bc6:	689a      	ldr	r2, [r3, #8]
 8000bc8:	687b      	ldr	r3, [r7, #4]
 8000bca:	681b      	ldr	r3, [r3, #0]
 8000bcc:	f422 4200 	bic.w	r2, r2, #32768	; 0x8000
 8000bd0:	609a      	str	r2, [r3, #8]

	// Bit 14 of OAR1 has to be kept at 1 by software, for some reason
	pI2CHandle->pI2Cx->OAR1 |= (1 << 14);
 8000bd2:	687b      	ldr	r3, [r7, #4]
 8000bd4:	681b      	ldr	r3, [r3, #0]
 8000bd6:	689a      	ldr	r2, [r3, #8]
 8000bd8:	687b      	ldr	r3, [r7, #4]
 8000bda:	681b      	ldr	r3, [r3, #0]
 8000bdc:	f442 4280 	orr.w	r2, r2, #16384	; 0x4000
 8000be0:	609a      	str	r2, [r3, #8]

	// CCR calculations
	uint16_t ccr_value = 0;
 8000be2:	2300      	movs	r3, #0
 8000be4:	817b      	strh	r3, [r7, #10]
	if(pI2CHandle->I2C_Config.SCLSpeed <= I2C_SCL_SPEED_SM){
 8000be6:	687b      	ldr	r3, [r7, #4]
 8000be8:	685b      	ldr	r3, [r3, #4]
 8000bea:	4a3e      	ldr	r2, [pc, #248]	; (8000ce4 <I2C_Init+0x180>)
 8000bec:	4293      	cmp	r3, r2
 8000bee:	d817      	bhi.n	8000c20 <I2C_Init+0xbc>
		// Mode is standard mode
		pI2CHandle->pI2Cx->CCR &= ~(1 << I2C_CCR_FS);
 8000bf0:	687b      	ldr	r3, [r7, #4]
 8000bf2:	681b      	ldr	r3, [r3, #0]
 8000bf4:	69da      	ldr	r2, [r3, #28]
 8000bf6:	687b      	ldr	r3, [r7, #4]
 8000bf8:	681b      	ldr	r3, [r3, #0]
 8000bfa:	f422 4200 	bic.w	r2, r2, #32768	; 0x8000
 8000bfe:	61da      	str	r2, [r3, #28]
		ccr_value = RCC_GetPCLK1Value() / (2 * pI2CHandle->I2C_Config.SCLSpeed);
 8000c00:	f7ff ff5e 	bl	8000ac0 <RCC_GetPCLK1Value>
 8000c04:	4602      	mov	r2, r0
 8000c06:	687b      	ldr	r3, [r7, #4]
 8000c08:	685b      	ldr	r3, [r3, #4]
 8000c0a:	005b      	lsls	r3, r3, #1
 8000c0c:	fbb2 f3f3 	udiv	r3, r2, r3
 8000c10:	817b      	strh	r3, [r7, #10]
		tempreg |= ccr_value & (0xFFF);
 8000c12:	897b      	ldrh	r3, [r7, #10]
 8000c14:	f3c3 030b 	ubfx	r3, r3, #0, #12
 8000c18:	68fa      	ldr	r2, [r7, #12]
 8000c1a:	4313      	orrs	r3, r2
 8000c1c:	60fb      	str	r3, [r7, #12]
 8000c1e:	e02a      	b.n	8000c76 <I2C_Init+0x112>
	} else {
		// Mode is fast mode
		pI2CHandle->pI2Cx->CCR |= (1 << I2C_CCR_FS);
 8000c20:	687b      	ldr	r3, [r7, #4]
 8000c22:	681b      	ldr	r3, [r3, #0]
 8000c24:	69da      	ldr	r2, [r3, #28]
 8000c26:	687b      	ldr	r3, [r7, #4]
 8000c28:	681b      	ldr	r3, [r3, #0]
 8000c2a:	f442 4200 	orr.w	r2, r2, #32768	; 0x8000
 8000c2e:	61da      	str	r2, [r3, #28]

		if(pI2CHandle->I2C_Config.FMDutyCycle == I2C_FM_DUTY_2){
 8000c30:	687b      	ldr	r3, [r7, #4]
 8000c32:	7a9b      	ldrb	r3, [r3, #10]
 8000c34:	2b00      	cmp	r3, #0
 8000c36:	d10b      	bne.n	8000c50 <I2C_Init+0xec>
			ccr_value = RCC_GetPCLK1Value() / (3 * pI2CHandle->I2C_Config.SCLSpeed);
 8000c38:	f7ff ff42 	bl	8000ac0 <RCC_GetPCLK1Value>
 8000c3c:	4601      	mov	r1, r0
 8000c3e:	687b      	ldr	r3, [r7, #4]
 8000c40:	685a      	ldr	r2, [r3, #4]
 8000c42:	4613      	mov	r3, r2
 8000c44:	005b      	lsls	r3, r3, #1
 8000c46:	4413      	add	r3, r2
 8000c48:	fbb1 f3f3 	udiv	r3, r1, r3
 8000c4c:	817b      	strh	r3, [r7, #10]
 8000c4e:	e00c      	b.n	8000c6a <I2C_Init+0x106>
		} else {
			ccr_value = RCC_GetPCLK1Value() / (25 * pI2CHandle->I2C_Config.SCLSpeed);
 8000c50:	f7ff ff36 	bl	8000ac0 <RCC_GetPCLK1Value>
 8000c54:	4601      	mov	r1, r0
 8000c56:	687b      	ldr	r3, [r7, #4]
 8000c58:	685a      	ldr	r2, [r3, #4]
 8000c5a:	4613      	mov	r3, r2
 8000c5c:	009b      	lsls	r3, r3, #2
 8000c5e:	4413      	add	r3, r2
 8000c60:	009a      	lsls	r2, r3, #2
 8000c62:	4413      	add	r3, r2
 8000c64:	fbb1 f3f3 	udiv	r3, r1, r3
 8000c68:	817b      	strh	r3, [r7, #10]
		}

		tempreg |= ccr_value & (0xFFF);
 8000c6a:	897b      	ldrh	r3, [r7, #10]
 8000c6c:	f3c3 030b 	ubfx	r3, r3, #0, #12
 8000c70:	68fa      	ldr	r2, [r7, #12]
 8000c72:	4313      	orrs	r3, r2
 8000c74:	60fb      	str	r3, [r7, #12]
	}

	pI2CHandle->pI2Cx->CCR |= (tempreg);
 8000c76:	687b      	ldr	r3, [r7, #4]
 8000c78:	681b      	ldr	r3, [r3, #0]
 8000c7a:	69d9      	ldr	r1, [r3, #28]
 8000c7c:	687b      	ldr	r3, [r7, #4]
 8000c7e:	681b      	ldr	r3, [r3, #0]
 8000c80:	68fa      	ldr	r2, [r7, #12]
 8000c82:	430a      	orrs	r2, r1
 8000c84:	61da      	str	r2, [r3, #28]

	//TRISE Configuration
	if(pI2CHandle->I2C_Config.SCLSpeed <= I2C_SCL_SPEED_SM){
 8000c86:	687b      	ldr	r3, [r7, #4]
 8000c88:	685b      	ldr	r3, [r3, #4]
 8000c8a:	4a16      	ldr	r2, [pc, #88]	; (8000ce4 <I2C_Init+0x180>)
 8000c8c:	4293      	cmp	r3, r2
 8000c8e:	d809      	bhi.n	8000ca4 <I2C_Init+0x140>
		tempreg = (RCC_GetPCLK1Value() / 1000000U) + 1;
 8000c90:	f7ff ff16 	bl	8000ac0 <RCC_GetPCLK1Value>
 8000c94:	4603      	mov	r3, r0
 8000c96:	4a12      	ldr	r2, [pc, #72]	; (8000ce0 <I2C_Init+0x17c>)
 8000c98:	fba2 2303 	umull	r2, r3, r2, r3
 8000c9c:	0c9b      	lsrs	r3, r3, #18
 8000c9e:	3301      	adds	r3, #1
 8000ca0:	60fb      	str	r3, [r7, #12]
 8000ca2:	e00c      	b.n	8000cbe <I2C_Init+0x15a>
	} else {
		tempreg = ((RCC_GetPCLK1Value() * 300) /1000000U) + 1;
 8000ca4:	f7ff ff0c 	bl	8000ac0 <RCC_GetPCLK1Value>
 8000ca8:	4603      	mov	r3, r0
 8000caa:	f44f 7296 	mov.w	r2, #300	; 0x12c
 8000cae:	fb02 f303 	mul.w	r3, r2, r3
 8000cb2:	4a0b      	ldr	r2, [pc, #44]	; (8000ce0 <I2C_Init+0x17c>)
 8000cb4:	fba2 2303 	umull	r2, r3, r2, r3
 8000cb8:	0c9b      	lsrs	r3, r3, #18
 8000cba:	3301      	adds	r3, #1
 8000cbc:	60fb      	str	r3, [r7, #12]
	}

	pI2CHandle->pI2Cx->TRISE =  (tempreg & 0x3F);
 8000cbe:	687b      	ldr	r3, [r7, #4]
 8000cc0:	681b      	ldr	r3, [r3, #0]
 8000cc2:	68fa      	ldr	r2, [r7, #12]
 8000cc4:	f002 023f 	and.w	r2, r2, #63	; 0x3f
 8000cc8:	621a      	str	r2, [r3, #32]

	I2C_PeriClockControl(pI2CHandle->pI2Cx, ENABLE);
 8000cca:	687b      	ldr	r3, [r7, #4]
 8000ccc:	681b      	ldr	r3, [r3, #0]
 8000cce:	2101      	movs	r1, #1
 8000cd0:	4618      	mov	r0, r3
 8000cd2:	f7ff fe99 	bl	8000a08 <I2C_PeriClockControl>
}
 8000cd6:	bf00      	nop
 8000cd8:	3710      	adds	r7, #16
 8000cda:	46bd      	mov	sp, r7
 8000cdc:	bd80      	pop	{r7, pc}
 8000cde:	bf00      	nop
 8000ce0:	431bde83 	.word	0x431bde83
 8000ce4:	000186a0 	.word	0x000186a0

08000ce8 <I2C_GetSR1FlagStatus>:
 *
 * @return		- SET or RESET
 *
 * @Note		- none
 */
uint8_t I2C_GetSR1FlagStatus(I2C_RegDef_t *pI2Cx, uint32_t flagName){
 8000ce8:	b480      	push	{r7}
 8000cea:	b083      	sub	sp, #12
 8000cec:	af00      	add	r7, sp, #0
 8000cee:	6078      	str	r0, [r7, #4]
 8000cf0:	6039      	str	r1, [r7, #0]
	if(pI2Cx->SR1 & flagName)
 8000cf2:	687b      	ldr	r3, [r7, #4]
 8000cf4:	695a      	ldr	r2, [r3, #20]
 8000cf6:	683b      	ldr	r3, [r7, #0]
 8000cf8:	4013      	ands	r3, r2
 8000cfa:	2b00      	cmp	r3, #0
 8000cfc:	d001      	beq.n	8000d02 <I2C_GetSR1FlagStatus+0x1a>
		return FLAG_SET;
 8000cfe:	2301      	movs	r3, #1
 8000d00:	e000      	b.n	8000d04 <I2C_GetSR1FlagStatus+0x1c>
	else
		return FLAG_RESET;
 8000d02:	2300      	movs	r3, #0
}
 8000d04:	4618      	mov	r0, r3
 8000d06:	370c      	adds	r7, #12
 8000d08:	46bd      	mov	sp, r7
 8000d0a:	f85d 7b04 	ldr.w	r7, [sp], #4
 8000d0e:	4770      	bx	lr

08000d10 <I2C_MasterSendData>:
 *
 * @return		- none
 *
 * @Note		- none
 */
void I2C_MasterSendData(I2C_Handle_t *pI2CHandle, uint8_t *pTxbuffer, uint32_t len, uint8_t slaveAddr){
 8000d10:	b580      	push	{r7, lr}
 8000d12:	b086      	sub	sp, #24
 8000d14:	af00      	add	r7, sp, #0
 8000d16:	60f8      	str	r0, [r7, #12]
 8000d18:	60b9      	str	r1, [r7, #8]
 8000d1a:	607a      	str	r2, [r7, #4]
 8000d1c:	70fb      	strb	r3, [r7, #3]
	// 1. Generate the START condition
	I2C_GenerateStartCondition(pI2CHandle->pI2Cx);
 8000d1e:	68fb      	ldr	r3, [r7, #12]
 8000d20:	681b      	ldr	r3, [r3, #0]
 8000d22:	4618      	mov	r0, r3
 8000d24:	f7ff fe1e 	bl	8000964 <I2C_GenerateStartCondition>

	// 2. Confirm that start generation is completed by checking the SB flag in the SR1
	// Note: Until SB is cleared SCL will be stretched
	while (I2C_GetSR1FlagStatus(pI2CHandle->pI2Cx, I2C_SB_FLAG) == FLAG_RESET);
 8000d28:	bf00      	nop
 8000d2a:	68fb      	ldr	r3, [r7, #12]
 8000d2c:	681b      	ldr	r3, [r3, #0]
 8000d2e:	2101      	movs	r1, #1
 8000d30:	4618      	mov	r0, r3
 8000d32:	f7ff ffd9 	bl	8000ce8 <I2C_GetSR1FlagStatus>
 8000d36:	4603      	mov	r3, r0
 8000d38:	2b00      	cmp	r3, #0
 8000d3a:	d0f6      	beq.n	8000d2a <I2C_MasterSendData+0x1a>

	// 3. Send the address of the slave with r/nw bit set to w(0) (total 8 bits)
	I2C_ExecuteAddressPhase(pI2CHandle->pI2Cx, slaveAddr, WRITE);
 8000d3c:	68fb      	ldr	r3, [r7, #12]
 8000d3e:	681b      	ldr	r3, [r3, #0]
 8000d40:	78f9      	ldrb	r1, [r7, #3]
 8000d42:	2200      	movs	r2, #0
 8000d44:	4618      	mov	r0, r3
 8000d46:	f7ff fe2d 	bl	80009a4 <I2C_ExecuteAddressPhase>

	// 4. Confirm that address phase is completed by checking the ADDR flag in the SR1
	while (I2C_GetSR1FlagStatus(pI2CHandle->pI2Cx, I2C_ADDR_FLAG) == FLAG_RESET);
 8000d4a:	bf00      	nop
 8000d4c:	68fb      	ldr	r3, [r7, #12]
 8000d4e:	681b      	ldr	r3, [r3, #0]
 8000d50:	2102      	movs	r1, #2
 8000d52:	4618      	mov	r0, r3
 8000d54:	f7ff ffc8 	bl	8000ce8 <I2C_GetSR1FlagStatus>
 8000d58:	4603      	mov	r3, r0
 8000d5a:	2b00      	cmp	r3, #0
 8000d5c:	d0f6      	beq.n	8000d4c <I2C_MasterSendData+0x3c>

	// 5. Clear the ADDR flag according to its software sequence
	//    Note: until ADDR is cleared SCL will be stretched (pulled to LOW)
	I2C_ClearADDRFlag(pI2CHandle->pI2Cx);
 8000d5e:	68fb      	ldr	r3, [r7, #12]
 8000d60:	681b      	ldr	r3, [r3, #0]
 8000d62:	4618      	mov	r0, r3
 8000d64:	f7ff fe3f 	bl	80009e6 <I2C_ClearADDRFlag>

	// 6. Send the data until len becomes 0
	for(int i = 0; i < len; i++){
 8000d68:	2300      	movs	r3, #0
 8000d6a:	617b      	str	r3, [r7, #20]
 8000d6c:	e013      	b.n	8000d96 <I2C_MasterSendData+0x86>
		while(I2C_GetSR1FlagStatus(pI2CHandle->pI2Cx, I2C_TxE_FLAG) == FLAG_RESET);
 8000d6e:	bf00      	nop
 8000d70:	68fb      	ldr	r3, [r7, #12]
 8000d72:	681b      	ldr	r3, [r3, #0]
 8000d74:	2180      	movs	r1, #128	; 0x80
 8000d76:	4618      	mov	r0, r3
 8000d78:	f7ff ffb6 	bl	8000ce8 <I2C_GetSR1FlagStatus>
 8000d7c:	4603      	mov	r3, r0
 8000d7e:	2b00      	cmp	r3, #0
 8000d80:	d0f6      	beq.n	8000d70 <I2C_MasterSendData+0x60>
		pI2CHandle->pI2Cx->DR = pTxbuffer[i];
 8000d82:	697b      	ldr	r3, [r7, #20]
 8000d84:	68ba      	ldr	r2, [r7, #8]
 8000d86:	4413      	add	r3, r2
 8000d88:	781a      	ldrb	r2, [r3, #0]
 8000d8a:	68fb      	ldr	r3, [r7, #12]
 8000d8c:	681b      	ldr	r3, [r3, #0]
 8000d8e:	611a      	str	r2, [r3, #16]
	for(int i = 0; i < len; i++){
 8000d90:	697b      	ldr	r3, [r7, #20]
 8000d92:	3301      	adds	r3, #1
 8000d94:	617b      	str	r3, [r7, #20]
 8000d96:	697b      	ldr	r3, [r7, #20]
 8000d98:	687a      	ldr	r2, [r7, #4]
 8000d9a:	429a      	cmp	r2, r3
 8000d9c:	d8e7      	bhi.n	8000d6e <I2C_MasterSendData+0x5e>
	}

	// 7. When Len becomes zero wait for TXE=1 and BTF=1 before generating ther STOP condition
	//	  Note: TXE=1, BTF-1, means that both SR and DR are empty and next transmission should begin
	//	  when BTF=1 SCL will be stretched (pulled to LOW)
	while ((I2C_GetSR1FlagStatus(pI2CHandle->pI2Cx, I2C_BTF_FLAG) == FLAG_RESET) ||
 8000d9e:	bf00      	nop
 8000da0:	68fb      	ldr	r3, [r7, #12]
 8000da2:	681b      	ldr	r3, [r3, #0]
 8000da4:	2104      	movs	r1, #4
 8000da6:	4618      	mov	r0, r3
 8000da8:	f7ff ff9e 	bl	8000ce8 <I2C_GetSR1FlagStatus>
 8000dac:	4603      	mov	r3, r0
 8000dae:	2b00      	cmp	r3, #0
 8000db0:	d0f6      	beq.n	8000da0 <I2C_MasterSendData+0x90>
			(I2C_GetSR1FlagStatus(pI2CHandle->pI2Cx, I2C_TxE_FLAG) == FLAG_RESET));
 8000db2:	68fb      	ldr	r3, [r7, #12]
 8000db4:	681b      	ldr	r3, [r3, #0]
 8000db6:	2180      	movs	r1, #128	; 0x80
 8000db8:	4618      	mov	r0, r3
 8000dba:	f7ff ff95 	bl	8000ce8 <I2C_GetSR1FlagStatus>
 8000dbe:	4603      	mov	r3, r0
	while ((I2C_GetSR1FlagStatus(pI2CHandle->pI2Cx, I2C_BTF_FLAG) == FLAG_RESET) ||
 8000dc0:	2b00      	cmp	r3, #0
 8000dc2:	d0ed      	beq.n	8000da0 <I2C_MasterSendData+0x90>

	// 8. Generate STOP condition and master need not to wait for the completion of stop condition
	//    Note: generating STOP automatically clears the BTF
	I2C_GenerateStopCondition(pI2CHandle->pI2Cx);
 8000dc4:	68fb      	ldr	r3, [r7, #12]
 8000dc6:	681b      	ldr	r3, [r3, #0]
 8000dc8:	4618      	mov	r0, r3
 8000dca:	f7ff fddb 	bl	8000984 <I2C_GenerateStopCondition>

}
 8000dce:	bf00      	nop
 8000dd0:	3718      	adds	r7, #24
 8000dd2:	46bd      	mov	sp, r7
 8000dd4:	bd80      	pop	{r7, pc}

08000dd6 <I2C_PeripheralControl>:
 *
 * @return		- none
 *
 * @Note		- none
 */
void I2C_PeripheralControl(I2C_RegDef_t * pI2Cx, uint8_t EnorDi){
 8000dd6:	b480      	push	{r7}
 8000dd8:	b083      	sub	sp, #12
 8000dda:	af00      	add	r7, sp, #0
 8000ddc:	6078      	str	r0, [r7, #4]
 8000dde:	460b      	mov	r3, r1
 8000de0:	70fb      	strb	r3, [r7, #3]
	if (EnorDi == ENABLE)
 8000de2:	78fb      	ldrb	r3, [r7, #3]
 8000de4:	2b01      	cmp	r3, #1
 8000de6:	d106      	bne.n	8000df6 <I2C_PeripheralControl+0x20>
		pI2Cx->CR1 |= (1 << I2C_CR1_PE);
 8000de8:	687b      	ldr	r3, [r7, #4]
 8000dea:	681b      	ldr	r3, [r3, #0]
 8000dec:	f043 0201 	orr.w	r2, r3, #1
 8000df0:	687b      	ldr	r3, [r7, #4]
 8000df2:	601a      	str	r2, [r3, #0]
	else
		pI2Cx->CR1 &= ~(1 << I2C_CR1_PE);
}
 8000df4:	e005      	b.n	8000e02 <I2C_PeripheralControl+0x2c>
		pI2Cx->CR1 &= ~(1 << I2C_CR1_PE);
 8000df6:	687b      	ldr	r3, [r7, #4]
 8000df8:	681b      	ldr	r3, [r3, #0]
 8000dfa:	f023 0201 	bic.w	r2, r3, #1
 8000dfe:	687b      	ldr	r3, [r7, #4]
 8000e00:	601a      	str	r2, [r3, #0]
}
 8000e02:	bf00      	nop
 8000e04:	370c      	adds	r7, #12
 8000e06:	46bd      	mov	sp, r7
 8000e08:	f85d 7b04 	ldr.w	r7, [sp], #4
 8000e0c:	4770      	bx	lr
	...

08000e10 <__libc_init_array>:
 8000e10:	b570      	push	{r4, r5, r6, lr}
 8000e12:	4d0d      	ldr	r5, [pc, #52]	; (8000e48 <__libc_init_array+0x38>)
 8000e14:	4c0d      	ldr	r4, [pc, #52]	; (8000e4c <__libc_init_array+0x3c>)
 8000e16:	1b64      	subs	r4, r4, r5
 8000e18:	10a4      	asrs	r4, r4, #2
 8000e1a:	2600      	movs	r6, #0
 8000e1c:	42a6      	cmp	r6, r4
 8000e1e:	d109      	bne.n	8000e34 <__libc_init_array+0x24>
 8000e20:	4d0b      	ldr	r5, [pc, #44]	; (8000e50 <__libc_init_array+0x40>)
 8000e22:	4c0c      	ldr	r4, [pc, #48]	; (8000e54 <__libc_init_array+0x44>)
 8000e24:	f000 f818 	bl	8000e58 <_init>
 8000e28:	1b64      	subs	r4, r4, r5
 8000e2a:	10a4      	asrs	r4, r4, #2
 8000e2c:	2600      	movs	r6, #0
 8000e2e:	42a6      	cmp	r6, r4
 8000e30:	d105      	bne.n	8000e3e <__libc_init_array+0x2e>
 8000e32:	bd70      	pop	{r4, r5, r6, pc}
 8000e34:	f855 3b04 	ldr.w	r3, [r5], #4
 8000e38:	4798      	blx	r3
 8000e3a:	3601      	adds	r6, #1
 8000e3c:	e7ee      	b.n	8000e1c <__libc_init_array+0xc>
 8000e3e:	f855 3b04 	ldr.w	r3, [r5], #4
 8000e42:	4798      	blx	r3
 8000e44:	3601      	adds	r6, #1
 8000e46:	e7f2      	b.n	8000e2e <__libc_init_array+0x1e>
 8000e48:	08000e7c 	.word	0x08000e7c
 8000e4c:	08000e7c 	.word	0x08000e7c
 8000e50:	08000e7c 	.word	0x08000e7c
 8000e54:	08000e80 	.word	0x08000e80

08000e58 <_init>:
 8000e58:	b5f8      	push	{r3, r4, r5, r6, r7, lr}
 8000e5a:	bf00      	nop
 8000e5c:	bcf8      	pop	{r3, r4, r5, r6, r7}
 8000e5e:	bc08      	pop	{r3}
 8000e60:	469e      	mov	lr, r3
 8000e62:	4770      	bx	lr

08000e64 <_fini>:
 8000e64:	b5f8      	push	{r3, r4, r5, r6, r7, lr}
 8000e66:	bf00      	nop
 8000e68:	bcf8      	pop	{r3, r4, r5, r6, r7}
 8000e6a:	bc08      	pop	{r3}
 8000e6c:	469e      	mov	lr, r3
 8000e6e:	4770      	bx	lr
